(dp1
S'output'
p2
S"<type 'exceptions.NameError'> name 'anr' is not defined"
p3
sS'layer'
p4
S'/home/mohit/itws_project/web2py/applications/quiz/views/default/question_display.html'
p5
sS'code'
p6
S'response.write(\'<style>\\n* {\\n  box-sizing: border-box;\\n  -moz-box-sizing: border-box;\\n  -webkit-box-sizing: border-box;\\n  font-family: arial;\\n}\\n\\n#pause {\\n    float: left;\\n}\\n\\n#done {\\n    float: right;\\n}\\n\\n#dock {\\n  text-align: center;\\n  font-family: arial;\\n  \\n}\\n    @font-face{\\n        font-family: qdi;\\n       \\n        src:url("\', escape=False)\nresponse.write(URL(\'static\',\'css/Fontin-Bold.otf\'))\nresponse.write(\'")\\n    }     \\n            @font-face{\\n        font-family: qdop;\\n      \\n        src:url("\', escape=False)\nresponse.write(URL(\'static\',\'css/Fontin-Regular.otf\'))\nresponse.write(\'")\\n    }\\n\\n.pagination {\\n  list-style: none;\\n  display: inline-block;\\n  padding: 0;\\n  margin-top: 10px;\\n}\\n.pagination li {\\n  display: inline;\\n  text-align: center;\\n}\\n.pagination a {\\n  float: left;\\n  display: block;\\n  font-size: 14px;\\n  text-decoration: none;\\n  padding: 5px 12px;\\n  color: #fff;\\n  margin-left: -1px;\\n  border: 1px solid transparent;\\n  line-height: 1.5;\\n}\\n.pagination a.active {\\n  cursor: default;\\n}\\n.pagination a:active {\\n  outline: none;\\n}\\n\\n.modal-4 a {\\n  margin: 0 5px;\\n  padding: 0;\\n  width: 30px;\\n  height: 30px;\\n  line-height: 30px;\\n  -moz-border-radius: 100%;\\n  -webkit-border-radius: 100%;\\n  border-radius: 100%;\\n  background-color: rgb(255, 71, 26);\\n}\\n.modal-4 a.prev {\\n  -moz-border-radius: 50px 0 0 50px;\\n  -webkit-border-radius: 50px;\\n  border-radius: 50px 0 0 50px;\\n  width: 100px;\\n}\\n.modal-4 a.next {\\n  -moz-border-radius: 0 50px 50px 0;\\n  -webkit-border-radius: 0;\\n  border-radius: 0 50px 50px 0;\\n  width: 100px;\\n}\\n.modal-4 a:hover {\\n  background-color: rgb(204, 0, 102);\\n}\\n.modal-4 a.active, .modal-4 a:active {\\n  background-color: rgb(204, 0, 102);\\n}\\n\\n#pic{\\n    background-image: url("\', escape=False)\nresponse.write(URL(\'static\',\'images/old_map_@2X.jpg\'))\nresponse.write(\'");\\n    background-repeat: no-repeat;\\n    background-size: cover;\\n    padding-top: 2%;\\n    height: 70%;\\n} \\n#dq{\\n    height: 20%;\\n    text-align: center;\\n    width: 70%;\\n    color: white;\\n    background-color: rgb(13, 13, 13);\\n    opacity: 0.6;\\n    padding-top: 2%;\\n    font-family: qdi;\\n    font-size: 35px;\\n    border-radius: 6%;\\n    margin-left: 14%;\\n\\n}\\n     #opt{\\n        height: 40%;\\n        background-color: rgb(13, 13, 13);\\n        opacity: 0.5;\\n          border-radius: 6%;\\n         margin-top: 3%;\\n        margin-left: 35%;\\n         border-radius: 6%;\\n         font-family: qdop;\\n         padding-left: 10%;\\n         padding-top: 1%;\\n         font-size: 120%;\\n         color: white;\\n        text-align: left;\\n        width: 30%;\\n    }\\n    \\n    #paus {\\n        height: 15%;\\n        width: 30%;\\n        background-color: rgb(13, 13, 13);\\n        opacity: 0.5;\\n          border-radius: 6%;\\n         margin-top: 3%;\\n        margin-left: 35%;\\n         border-radius: 6%;\\n         font-family: qdop;\\n         \\n         padding-top: 0.3%;\\n         font-size: 120%;\\n         color: white;\\n        text-align: center;\\n    }\\n    \\n    #f{\\n        \\n        height: 25%;\\n        background-color:rgb(13, 13, 13);\\n        display:inline-block;\\n        border-radius: 6%;\\n      color: white;\\n        opacity: 0.5;\\n       margin-top: 3%;\\n        padding-left: 14%;\\n        width: 32%;\\n        margin-left: 14%;\\n    }\\n    form{\\n        color: white;\\n    }\\n   \\n</style>\\n\\n\\n\\n\\n\\n\\n\\n\\n\\n\', escape=False)\nif toshow == 1:\n    response.write(\'\\n<div id="pic">\\n<div id="dq">\\n    \', escape=False)\n    response.write(anr.Q1)\n    response.write(\'\\n</div>\\n    <div id="opt">\\n        \', escape=False)\n    response.write(form1.custom.begin)\n    response.write(\'\\n\', escape=False)\n    response.write(form1.custom.widget.Ans1[0])\n    response.write(\') \', escape=False)\n    response.write(ar.A1)\n    response.write(\'<br>\\n\', escape=False)\n    response.write(form1.custom.widget.Ans1[1])\n    response.write(\') \', escape=False)\n    response.write(br.B1)\n    response.write(\'<br>\\n\', escape=False)\n    response.write(form1.custom.widget.Ans1[2])\n    response.write(\') \', escape=False)\n    response.write(cr.C1)\n    response.write(\'  <br>\\n\', escape=False)\n    response.write(form1.custom.widget.Ans1[3])\n    response.write(\') \', escape=False)\n    response.write(dr.D1)\n    response.write(\' <br> \\n        <br>\\n\', escape=False)\n    response.write(form1.custom.submit)\n    response.write(\'\\n\', escape=False)\n    response.write(form1.custom.end)\n    response.write(\'\\n    </div>\\n <!--   <div id="f">    \', escape=False)\n    response.write(form1)\n    response.write(\' </div>   -->\\n            \', escape=False)\n    if resumeid != "None":\n        response.write(\'\\n        \', escape=False)\n        if line.marked1 is not None:\n            response.write(\'\\n    <div id="paus">\\n        <p>Before pausing quiz you marked\', escape=False)\n            response.write(line.marked1)\n            response.write(\'</p>\', escape=False)\n            pass\n        pass\n    response.write(\'\\n    </div>\\n</div>\\n<div id="dock">\\n<ul class="pagination modal-4">\\n  <li><a href="\', escape=False)\n    response.write(URL(\'question_display\', args = [lvl,st,subcat,cat,5,resumeid]))\n    response.write(\'" class="prev"><i class="fa fa-chevron-left"></i>Previous</a></li>\\n  <li> <a href="\', escape=False)\n    response.write(URL(\'question_display\', args = [lvl,st,subcat,cat,1,resumeid]))\n    response.write(\'" class="active">1</a></li>\\n  <li> <a href="\', escape=False)\n    response.write(URL(\'question_display\', args = [lvl,st,subcat,cat,2,resumeid]))\n    response.write(\'">2</a></li>\\n  <li> <a href="\', escape=False)\n    response.write(URL(\'question_display\', args = [lvl,st,subcat,cat,3,resumeid]))\n    response.write(\'">3</a></li>\\n  <li> <a href="\', escape=False)\n    response.write(URL(\'question_display\', args = [lvl,st,subcat,cat,4,resumeid]))\n    response.write(\'">4</a></li>\\n  <li> <a href="\', escape=False)\n    response.write(URL(\'question_display\', args = [lvl,st,subcat,cat,5,resumeid]))\n    response.write(\'">5</a></li>\\n  <li><a href="\', escape=False)\n    response.write(URL(\'question_display\', args = [lvl,st,subcat,cat,2,resumeid]))\n    response.write(\'" class="next"> Next <i class="fa fa-chevron-right"></i></a></li>\\n</ul><br> \\n</div>\\n\', escape=False)\n    pass\nresponse.write(\'\\n\\n\', escape=False)\nif toshow == 2:\n    response.write(\'\\n    <div id="pic">\\n    <div id="dq">\\n    \', escape=False)\n    response.write(anr.Q2)\n    response.write(\'\\n        </div>\\n        <div id="opt">\\n        \', escape=False)\n    response.write(form2.custom.begin)\n    response.write(\'\\n\', escape=False)\n    response.write(form2.custom.widget.Ans2[0])\n    response.write(\') \', escape=False)\n    response.write(ar.A2)\n    response.write(\'<br>\\n\', escape=False)\n    response.write(form2.custom.widget.Ans2[1])\n    response.write(\') \', escape=False)\n    response.write(br.B2)\n    response.write(\'<br>\\n\', escape=False)\n    response.write(form2.custom.widget.Ans2[2])\n    response.write(\') \', escape=False)\n    response.write(cr.C2)\n    response.write(\'  <br>\\n\', escape=False)\n    response.write(form2.custom.widget.Ans2[3])\n    response.write(\') \', escape=False)\n    response.write(dr.D2)\n    response.write(\' <br> \\n        <br>\\n\', escape=False)\n    response.write(form2.custom.submit)\n    response.write(\'\\n\', escape=False)\n    response.write(form2.custom.end)\n    response.write(\'     </div>\\n\\n        \', escape=False)\n    if resumeid != "None":\n        response.write(\'\\n        \', escape=False)\n        if line.marked2 is not None:\n            response.write(\'\\n    <div id="paus">\\n        <p>Before pausing quiz you marked\', escape=False)\n            response.write(line.marked2)\n            response.write(\'</p>\', escape=False)\n            pass\n        pass\n    response.write(\'\\n    </div>\\n</div>\\n\\n<div id="dock">\\n<ul class="pagination modal-4">\\n  <li><a href="\', escape=False)\n    response.write(URL(\'question_display\', args = [lvl,st,subcat,cat,1,resumeid]))\n    response.write(\'" class="prev"><i class="fa fa-chevron-left"></i>Previous</a></li>\\n  <li> <a href="\', escape=False)\n    response.write(URL(\'question_display\', args = [lvl,st,subcat,cat,1,resumeid]))\n    response.write(\'">1</a></li>\\n  <li> <a href="\', escape=False)\n    response.write(URL(\'question_display\', args = [lvl,st,subcat,cat,2,resumeid]))\n    response.write(\'" class="active">2</a></li>\\n  <li> <a href="\', escape=False)\n    response.write(URL(\'question_display\', args = [lvl,st,subcat,cat,3,resumeid]))\n    response.write(\'">3</a></li>\\n  <li> <a href="\', escape=False)\n    response.write(URL(\'question_display\', args = [lvl,st,subcat,cat,4,resumeid]))\n    response.write(\'">4</a></li>\\n  <li> <a href="\', escape=False)\n    response.write(URL(\'question_display\', args = [lvl,st,subcat,cat,5,resumeid]))\n    response.write(\'">5</a></li>\\n  <li><a href="\', escape=False)\n    response.write(URL(\'question_display\', args = [lvl,st,subcat,cat,3,resumeid]))\n    response.write(\'" class="next"> Next <i class="fa fa-chevron-right"></i></a></li>\\n</ul><br>\\n</div>\\n\', escape=False)\n    pass\nresponse.write(\'\\n\\n\', escape=False)\nif toshow == 3:\n    response.write(\'\\n        <div id="pic">\\n    <div id="dq">\\n    \', escape=False)\n    response.write(anr.Q3)\n    response.write(\'\\n         </div>\\n            <div id="opt">\\n        \', escape=False)\n    response.write(form2.custom.begin)\n    response.write(\'\\n\', escape=False)\n    response.write(form3.custom.widget.Ans3[0])\n    response.write(\') \', escape=False)\n    response.write(ar.A3)\n    response.write(\'<br>\\n\', escape=False)\n    response.write(form3.custom.widget.Ans3[1])\n    response.write(\') \', escape=False)\n    response.write(br.B3)\n    response.write(\'<br>\\n\', escape=False)\n    response.write(form3.custom.widget.Ans3[2])\n    response.write(\') \', escape=False)\n    response.write(cr.C3)\n    response.write(\'  <br>\\n\', escape=False)\n    response.write(form3.custom.widget.Ans3[3])\n    response.write(\') \', escape=False)\n    response.write(dr.D3)\n    response.write(\' <br> \\n        <br>\\n\', escape=False)\n    response.write(form3.custom.submit)\n    response.write(\'\\n\', escape=False)\n    response.write(form3.custom.end)\n    response.write(\'     </div>\\n\\n\\n        \', escape=False)\n    if resumeid != "None":\n        response.write(\'\\n        \', escape=False)\n        if line.marked3 is not None:\n            response.write(\'\\n    <div id="paus">\\n        <p>Before pausing quiz you marked\', escape=False)\n            response.write(line.marked3)\n            response.write(\'</p>\', escape=False)\n            pass\n        pass\n    response.write(\'\\n    </div>\\n </div>\\n\\n<div id="dock">\\n<ul class="pagination modal-4">\\n  <li><a href="\', escape=False)\n    response.write(URL(\'question_display\', args = [lvl,st,subcat,cat,2,resumeid]))\n    response.write(\'" class="prev"><i class="fa fa-chevron-left"></i>Previous</a></li>\\n  <li> <a href="\', escape=False)\n    response.write(URL(\'question_display\', args = [lvl,st,subcat,cat,1,resumeid]))\n    response.write(\'">1</a></li>\\n  <li> <a href="\', escape=False)\n    response.write(URL(\'question_display\', args = [lvl,st,subcat,cat,2,resumeid]))\n    response.write(\'">2</a></li>\\n  <li> <a href="\', escape=False)\n    response.write(URL(\'question_display\', args = [lvl,st,subcat,cat,3,resumeid]))\n    response.write(\'" class="active">3</a></li>\\n  <li> <a href="\', escape=False)\n    response.write(URL(\'question_display\', args = [lvl,st,subcat,cat,4,resumeid]))\n    response.write(\'">4</a></li>\\n  <li> <a href="\', escape=False)\n    response.write(URL(\'question_display\', args = [lvl,st,subcat,cat,5,resumeid]))\n    response.write(\'">5</a></li>\\n  <li><a href="\', escape=False)\n    response.write(URL(\'question_display\', args = [lvl,st,subcat,cat,4,resumeid]))\n    response.write(\'" class="next"> Next <i class="fa fa-chevron-right"></i></a></li>\\n</ul><br> \\n</div>\\n\', escape=False)\n    pass\nresponse.write(\'\\n\\n\', escape=False)\nif toshow == 4:\n    response.write(\'\\n        <div id="pic">\\n    <div id="dq">\\n    \', escape=False)\n    response.write(anr.Q4)\n    response.write(\'\\n            </div>\\n         <div id="opt">\\n         \', escape=False)\n    response.write(form4.custom.begin)\n    response.write(\'\\n\', escape=False)\n    response.write(form4.custom.widget.Ans4[0])\n    response.write(\') \', escape=False)\n    response.write(ar.A4)\n    response.write(\'<br>\\n\', escape=False)\n    response.write(form4.custom.widget.Ans4[1])\n    response.write(\') \', escape=False)\n    response.write(br.B4)\n    response.write(\'<br>\\n\', escape=False)\n    response.write(form4.custom.widget.Ans4[2])\n    response.write(\') \', escape=False)\n    response.write(cr.C4)\n    response.write(\'  <br>\\n\', escape=False)\n    response.write(form4.custom.widget.Ans4[3])\n    response.write(\') \', escape=False)\n    response.write(dr.D4)\n    response.write(\' <br> \\n        <br>\\n\', escape=False)\n    response.write(form4.custom.submit)\n    response.write(\'\\n\', escape=False)\n    response.write(form4.custom.end)\n    response.write(\'     </div>\\n\\n        \', escape=False)\n    if resumeid != "None":\n        response.write(\'\\n        \', escape=False)\n        if line.marked4 is not None:\n            response.write(\'\\n    <div id="paus">\\n            <p>Before pausing quiz you marked\', escape=False)\n            response.write(line.marked4)\n            response.write(\'</p>\', escape=False)\n            pass\n        pass\n    response.write(\'\\n    </div>  \\n </div>\\n<div id="dock">\\n<ul class="pagination modal-4">\\n  <li><a href="\', escape=False)\n    response.write(URL(\'question_display\', args = [lvl,st,subcat,cat,3,resumeid]))\n    response.write(\'" class="prev"><i class="fa fa-chevron-left"></i>Previous</a></li>\\n  <li> <a href="\', escape=False)\n    response.write(URL(\'question_display\', args = [lvl,st,subcat,cat,1,resumeid]))\n    response.write(\'">1</a></li>\\n  <li> <a href="\', escape=False)\n    response.write(URL(\'question_display\', args = [lvl,st,subcat,cat,2,resumeid]))\n    response.write(\'">2</a></li>\\n  <li> <a href="\', escape=False)\n    response.write(URL(\'question_display\', args = [lvl,st,subcat,cat,3,resumeid]))\n    response.write(\'">3</a></li>\\n  <li> <a href="\', escape=False)\n    response.write(URL(\'question_display\', args = [lvl,st,subcat,cat,4,resumeid]))\n    response.write(\'" class="active">4</a></li>\\n  <li> <a href="\', escape=False)\n    response.write(URL(\'question_display\', args = [lvl,st,subcat,cat,5,resumeid]))\n    response.write(\'">5</a></li>\\n  <li><a href="\', escape=False)\n    response.write(URL(\'question_display\', args = [lvl,st,subcat,cat,5,resumeid]))\n    response.write(\'" class="next"> Next <i class="fa fa-chevron-right"></i></a></li>\\n</ul><br> \\n</div>\\n\', escape=False)\n    pass\nresponse.write(\'\\n\\n\', escape=False)\nif toshow == 5:\n    response.write(\'\\n        <div id="pic">\\n    <div id="dq">\\n    \', escape=False)\n    response.write(anr.Q5)\n    response.write(\'\\n         </div>\\n            <div id="opt">\\n        \', escape=False)\n    response.write(form5.custom.begin)\n    response.write(\'\\n\', escape=False)\n    response.write(form5.custom.widget.Ans5[0])\n    response.write(\') \', escape=False)\n    response.write(ar.A5)\n    response.write(\'<br>\\n\', escape=False)\n    response.write(form5.custom.widget.Ans5[1])\n    response.write(\') \', escape=False)\n    response.write(br.B5)\n    response.write(\'<br>\\n\', escape=False)\n    response.write(form5.custom.widget.Ans5[2])\n    response.write(\') \', escape=False)\n    response.write(cr.C5)\n    response.write(\'  <br>\\n\', escape=False)\n    response.write(form5.custom.widget.Ans5[3])\n    response.write(\') \', escape=False)\n    response.write(dr.D5)\n    response.write(\' <br> \\n        <br>\\n\', escape=False)\n    response.write(form5.custom.submit)\n    response.write(\'\\n\', escape=False)\n    response.write(form5.custom.end)\n    response.write(\'     </div>\\n\\n        \', escape=False)\n    if resumeid != "None":\n        response.write(\'\\n        \', escape=False)\n        if line.marked5 is not None:\n            response.write(\'\\n    <div id="paus">\\n        <p>Before pausing quiz you marked\', escape=False)\n            response.write(line.marked5)\n            response.write(\'</p>\', escape=False)\n            pass\n        pass\n    response.write(\'\\n    </div>\\n </div>\\n<div id="dock">\\n<ul class="pagination modal-4">\\n  <li><a href="\', escape=False)\n    response.write(URL(\'question_display\', args = [lvl,st,subcat,cat,4,resumeid]))\n    response.write(\'" class="prev"><i class="fa fa-chevron-left"></i>Previous</a></li>\\n  <li> <a href="\', escape=False)\n    response.write(URL(\'question_display\', args = [lvl,st,subcat,cat,1,resumeid]))\n    response.write(\'">1</a></li>\\n  <li> <a href="\', escape=False)\n    response.write(URL(\'question_display\', args = [lvl,st,subcat,cat,2,resumeid]))\n    response.write(\'">2</a></li>\\n  <li> <a href="\', escape=False)\n    response.write(URL(\'question_display\', args = [lvl,st,subcat,cat,3,resumeid]))\n    response.write(\'">3</a></li>\\n  <li> <a href="\', escape=False)\n    response.write(URL(\'question_display\', args = [lvl,st,subcat,cat,4,resumeid]))\n    response.write(\'">4</a></li>\\n  <li> <a href="\', escape=False)\n    response.write(URL(\'question_display\', args = [lvl,st,subcat,cat,5,resumeid]))\n    response.write(\'" class="active">5</a></li>\\n  <li><a href="\', escape=False)\n    response.write(URL(\'question_display\', args = [lvl,st,subcat,cat,1,resumeid]))\n    response.write(\'" class="next"> Next <i class="fa fa-chevron-right"></i></a></li>\\n</ul><br> \\n</div>\\n\', escape=False)\n    pass\nresponse.write(\'\\n\\n<a id="pause" href="\', escape=False)\nresponse.write(URL(\'pause\', args = [lvl,st,subcat,cat]))\nresponse.write(\'"> <button type="button" class="img-circle" >PAUSE IT</button> </a>\\n<a id="done" href="\', escape=False)\nresponse.write(URL(\'marksheet\', args = [lvl,st,subcat,cat]))\nresponse.write(\'"> <button type="button" >QUIZ DONE</button> </a>\\n\', escape=False)'
p7
sS'snapshot'
p8
(dp9
S'exception'
p10
(dp11
S'__hash__'
p12
S"<method-wrapper '__hash__' of exceptions.NameError object>"
p13
sS'__setattr__'
p14
S"<method-wrapper '__setattr__' of exceptions.NameError object>"
p15
sS'__reduce_ex__'
p16
S'<built-in method __reduce_ex__ of exceptions.NameError object>'
p17
sS'__getslice__'
p18
S"<method-wrapper '__getslice__' of exceptions.NameError object>"
p19
sS'__getitem__'
p20
S"<method-wrapper '__getitem__' of exceptions.NameError object>"
p21
sS'__setstate__'
p22
S'<built-in method __setstate__ of exceptions.NameError object>'
p23
sS'args'
p24
S'("name \'anr\' is not defined",)'
p25
sS'__reduce__'
p26
S'<built-in method __reduce__ of exceptions.NameError object>'
p27
sS'__str__'
p28
S"<method-wrapper '__str__' of exceptions.NameError object>"
p29
sS'__format__'
p30
S'<built-in method __format__ of exceptions.NameError object>'
p31
sS'__getattribute__'
p32
S"<method-wrapper '__getattribute__' of exceptions.NameError object>"
p33
sS'__class__'
p34
S"<type 'exceptions.NameError'>"
p35
sS'__unicode__'
p36
S'<built-in method __unicode__ of exceptions.NameError object>'
p37
sS'__delattr__'
p38
S"<method-wrapper '__delattr__' of exceptions.NameError object>"
p39
sS'__subclasshook__'
p40
S'<built-in method __subclasshook__ of type object>'
p41
sS'__repr__'
p42
S"<method-wrapper '__repr__' of exceptions.NameError object>"
p43
sS'__dict__'
p44
S'{}'
p45
sS'__sizeof__'
p46
S'<built-in method __sizeof__ of exceptions.NameError object>'
p47
sS'__doc__'
p48
S"'Name not found globally.'"
p49
sS'__init__'
p50
S"<method-wrapper '__init__' of exceptions.NameError object>"
p51
sS'__new__'
p52
S'<built-in method __new__ of type object>'
p53
ssS'evalue'
p54
S"name 'anr' is not defined"
p55
sS'request'
p56
cgluon.html
XML_unpickle
p57
(S's\xb8V\x00\x00<div><table><tr><td style="font-weight:bold;vertical-align:top;">ajax</td><td style="vertical-align:top;">:</td><td><div>False</div></td></tr><tr><td style="font-weight:bold;vertical-align:top;">application</td><td style="vertical-align:top;">:</td><td><div>quiz</div></td></tr><tr><td style="font-weight:bold;vertical-align:top;">args</td><td style="vertical-align:top;">:</td><td><div><table><tr><td><div>Hard</div></td></tr><tr><td><div>A</div></td></tr><tr><td><div>Football</div></td></tr><tr><td><div>Sports</div></td></tr><tr><td><div>1</div></td></tr><tr><td><div>None</div></td></tr></table></div></td></tr><tr><td style="font-weight:bold;vertical-align:top;">cid</td><td style="vertical-align:top;">:</td><td><div>None</div></td></tr><tr><td style="font-weight:bold;vertical-align:top;">client</td><td style="vertical-align:top;">:</td><td><div>127.0.0.1</div></td></tr><tr><td style="font-weight:bold;vertical-align:top;">controller</td><td style="vertical-align:top;">:</td><td><div>default</div></td></tr><tr><td style="font-weight:bold;vertical-align:top;">cookies</td><td style="vertical-align:top;">:</td><td><div><table><tr><td style="font-weight:bold;vertical-align:top;">session_id_quiz</td><td style="vertical-align:top;">:</td><td><div>127.0.0.1-f945e8d6-a247-4cf2-8d0e-f83604e99ee3<table><tr><td style="font-weight:bold;vertical-align:top;">comment</td><td style="vertical-align:top;">:</td><td><div></div></td></tr><tr><td style="font-weight:bold;vertical-align:top;">domain</td><td style="vertical-align:top;">:</td><td><div></div></td></tr><tr><td style="font-weight:bold;vertical-align:top;">expires</td><td style="vertical-align:top;">:</td><td><div></div></td></tr><tr><td style="font-weight:bold;vertical-align:top;">httponly</td><td style="vertical-align:top;">:</td><td><div></div></td></tr><tr><td style="font-weight:bold;vertical-align:top;">max-age</td><td style="vertical-align:top;">:</td><td><div></div></td></tr><tr><td style="font-weight:bold;vertical-align:top;">path</td><td style="vertical-align:top;">:</td><td><div></div></td></tr><tr><td style="font-weight:bold;vertical-align:top;">secure</td><td style="vertical-align:top;">:</td><td><div></div></td></tr><tr><td style="font-weight:bold;vertical-align:top;">version</td><td style="vertical-align:top;">:</td><td><div></div></td></tr></table></div></td></tr><tr><td style="font-weight:bold;vertical-align:top;">session_id_welcome</td><td style="vertical-align:top;">:</td><td><div>127.0.0.1-8b61e232-3579-485e-b670-72475e299b55<table><tr><td style="font-weight:bold;vertical-align:top;">comment</td><td style="vertical-align:top;">:</td><td><div></div></td></tr><tr><td style="font-weight:bold;vertical-align:top;">domain</td><td style="vertical-align:top;">:</td><td><div></div></td></tr><tr><td style="font-weight:bold;vertical-align:top;">expires</td><td style="vertical-align:top;">:</td><td><div></div></td></tr><tr><td style="font-weight:bold;vertical-align:top;">httponly</td><td style="vertical-align:top;">:</td><td><div></div></td></tr><tr><td style="font-weight:bold;vertical-align:top;">max-age</td><td style="vertical-align:top;">:</td><td><div></div></td></tr><tr><td style="font-weight:bold;vertical-align:top;">path</td><td style="vertical-align:top;">:</td><td><div></div></td></tr><tr><td style="font-weight:bold;vertical-align:top;">secure</td><td style="vertical-align:top;">:</td><td><div></div></td></tr><tr><td style="font-weight:bold;vertical-align:top;">version</td><td style="vertical-align:top;">:</td><td><div></div></td></tr></table></div></td></tr></table></div></td></tr><tr><td style="font-weight:bold;vertical-align:top;">env</td><td style="vertical-align:top;">:</td><td><div><table><tr><td style="font-weight:bold;vertical-align:top;">HTTP_ACCEPT</td><td style="vertical-align:top;">:</td><td><div>text/html,application/xhtml+xml,application/xml;q=0.9,*/*;q=0.8</div></td></tr><tr><td style="font-weight:bold;vertical-align:top;">HTTP_ACCEPT_ENCODING</td><td style="vertical-align:top;">:</td><td><div>gzip, deflate</div></td></tr><tr><td style="font-weight:bold;vertical-align:top;">HTTP_ACCEPT_LANGUAGE</td><td style="vertical-align:top;">:</td><td><div>en-US,en;q=0.5</div></td></tr><tr><td style="font-weight:bold;vertical-align:top;">HTTP_CONNECTION</td><td style="vertical-align:top;">:</td><td><div>keep-alive</div></td></tr><tr><td style="font-weight:bold;vertical-align:top;">HTTP_COOKIE</td><td style="vertical-align:top;">:</td><td><div>session_id_welcome=127.0.0.1-8b61e232-3579-485e-b670-72475e299b55; session_id_quiz=127.0.0.1-f945e8d6-a247-4cf2-8d0e-f83604e99ee3</div></td></tr><tr><td style="font-weight:bold;vertical-align:top;">HTTP_HOST</td><td style="vertical-align:top;">:</td><td><div>127.0.0.1:8000</div></td></tr><tr><td style="font-weight:bold;vertical-align:top;">HTTP_REFERER</td><td style="vertical-align:top;">:</td><td><div>http://127.0.0.1:8000/quiz/default/startpage/Hard/A/Football/Sports</div></td></tr><tr><td style="font-weight:bold;vertical-align:top;">HTTP_USER_AGENT</td><td style="vertical-align:top;">:</td><td><div>Mozilla/5.0 (X11; Ubuntu; Linux x86_64; rv:46.0) Gecko/20100101 Firefox/46.0</div></td></tr><tr><td style="font-weight:bold;vertical-align:top;">PATH_INFO</td><td style="vertical-align:top;">:</td><td><div>/quiz/default/question_display/Hard/A/Football/Sports/1/None</div></td></tr><tr><td style="font-weight:bold;vertical-align:top;">QUERY_STRING</td><td style="vertical-align:top;">:</td><td><div></div></td></tr><tr><td style="font-weight:bold;vertical-align:top;">REMOTE_ADDR</td><td style="vertical-align:top;">:</td><td><div>127.0.0.1</div></td></tr><tr><td style="font-weight:bold;vertical-align:top;">REMOTE_PORT</td><td style="vertical-align:top;">:</td><td><div>58850</div></td></tr><tr><td style="font-weight:bold;vertical-align:top;">REQUEST_METHOD</td><td style="vertical-align:top;">:</td><td><div>GET</div></td></tr><tr><td style="font-weight:bold;vertical-align:top;">SCRIPT_NAME</td><td style="vertical-align:top;">:</td><td><div></div></td></tr><tr><td style="font-weight:bold;vertical-align:top;">SERVER_NAME</td><td style="vertical-align:top;">:</td><td><div>Mohit-dellinspiron</div></td></tr><tr><td style="font-weight:bold;vertical-align:top;">SERVER_PORT</td><td style="vertical-align:top;">:</td><td><div>8000</div></td></tr><tr><td style="font-weight:bold;vertical-align:top;">SERVER_PROTOCOL</td><td style="vertical-align:top;">:</td><td><div>HTTP/1.1</div></td></tr><tr><td style="font-weight:bold;vertical-align:top;">SERVER_SOFTWARE</td><td style="vertical-align:top;">:</td><td><div>Rocket 1.2.6</div></td></tr><tr><td style="font-weight:bold;vertical-align:top;">app_folders</td><td style="vertical-align:top;">:</td><td><div>set([&#x27;/home/mohit/itws_project/web2py/applications/welcome/&#x27;, &#x27;/home/mohit/itws_project/web2py/applications/quiz/&#x27;])</div></td></tr><tr><td style="font-weight:bold;vertical-align:top;">applications_parent</td><td style="vertical-align:top;">:</td><td><div>/home/mohit/itws_project/web2py</div></td></tr><tr><td style="font-weight:bold;vertical-align:top;">cmd_args</td><td style="vertical-align:top;">:</td><td><div><table></table></div></td></tr><tr><td style="font-weight:bold;vertical-align:top;">cmd_options</td><td style="vertical-align:top;">:</td><td><div>&lt;Values at 0x7fb4a5693a28: {&#x27;verbose&#x27;: False, &#x27;ip&#x27;: &#x27;127.0.0.1&#x27;, &#x27;debuglevel&#x27;: 30, &#x27;with_scheduler&#x27;: False, &#x27;ips&#x27;: [&#x27;127.0.1.1&#x27;], &#x27;shutdown_timeout&#x27;: 5, &#x27;taskbar&#x27;: False, &#x27;with_coverage&#x27;: False, &#x27;scheduler_groups&#x27;: None, &#x27;port&#x27;: 8000, &#x27;maxthreads&#x27;: None, &#x27;softcron&#x27;: False, &#x27;server_name&#x27;: &#x27;Mohit-dellinspiron&#x27;, &#x27;bpython&#x27;: False, &#x27;nogui&#x27;: True, &#x27;pid_filename&#x27;: &#x27;httpserver.pid&#x27;, &#x27;print_errors&#x27;: False, &#x27;extcron&#x27;: False, &#x27;runcron&#x27;: False, &#x27;run_system_tests&#x27;: False, &#x27;test&#x27;: None, &#x27;folder&#x27;: &#x27;/home/mohit/itws_project/web2py&#x27;, &#x27;config&#x27;: &#x27;&#x27;, &#x27;minthreads&#x27;: None, &#x27;shell&#x27;: None, &#x27;run&#x27;: &#x27;&#x27;, &#x27;log_filename&#x27;: &#x27;httpserver.log&#x27;, &#x27;profiler_dir&#x27;: None, &#x27;args&#x27;: [&#x27;&#x27;], &#x27;socket_timeout&#x27;: 5, &#x27;ssl_ca_certificate&#x27;: None, &#x27;scheduler&#x27;: None, &#x27;interfaces&#x27;: None, &#x27;ssl_private_key&#x27;: &#x27;&#x27;, &#x27;gae&#x27;: None, &#x27;password&#x27;: &#x27;m&#x27;, &#x27;request_queue_size&#x27;: 5, &#x27;ssl_certificate&#x27;: &#x27;&#x27;, &#x27;cronjob&#x27;: False, &#x27;numthreads&#x27;: None, &#x27;quiet&#x27;: False, &#x27;import_models&#x27;: False, &#x27;timeout&#x27;: 10, &#x27;plain&#x27;: False, &#x27;nobanner&#x27;: False}&gt;</div></td></tr><tr><td style="font-weight:bold;vertical-align:top;">db_sessions</td><td style="vertical-align:top;">:</td><td><div>set([])</div></td></tr><tr><td style="font-weight:bold;vertical-align:top;">debugging</td><td style="vertical-align:top;">:</td><td><div>False</div></td></tr><tr><td style="font-weight:bold;vertical-align:top;">gluon_parent</td><td style="vertical-align:top;">:</td><td><div>/home/mohit/itws_project/web2py</div></td></tr><tr><td style="font-weight:bold;vertical-align:top;">http_accept</td><td style="vertical-align:top;">:</td><td><div>text/html,application/xhtml+xml,application/xml;q=0.9,*/*;q=0.8</div></td></tr><tr><td style="font-weight:bold;vertical-align:top;">http_accept_encoding</td><td style="vertical-align:top;">:</td><td><div>gzip, deflate</div></td></tr><tr><td style="font-weight:bold;vertical-align:top;">http_accept_language</td><td style="vertical-align:top;">:</td><td><div>en-US,en;q=0.5</div></td></tr><tr><td style="font-weight:bold;vertical-align:top;">http_connection</td><td style="vertical-align:top;">:</td><td><div>keep-alive</div></td></tr><tr><td style="font-weight:bold;vertical-align:top;">http_cookie</td><td style="vertical-align:top;">:</td><td><div>session_id_welcome=127.0.0.1-8b61e232-3579-485e-b670-72475e299b55; session_id_quiz=127.0.0.1-f945e8d6-a247-4cf2-8d0e-f83604e99ee3</div></td></tr><tr><td style="font-weight:bold;vertical-align:top;">http_host</td><td style="vertical-align:top;">:</td><td><div>127.0.0.1:8000</div></td></tr><tr><td style="font-weight:bold;vertical-align:top;">http_referer</td><td style="vertical-align:top;">:</td><td><div>http://127.0.0.1:8000/quiz/default/startpage/Hard/A/Football/Sports</div></td></tr><tr><td style="font-weight:bold;vertical-align:top;">http_user_agent</td><td style="vertical-align:top;">:</td><td><div>Mozilla/5.0 (X11; Ubuntu; Linux x86_64; rv:46.0) Gecko/20100101 Firefox/46.0</div></td></tr><tr><td style="font-weight:bold;vertical-align:top;">is_jython</td><td style="vertical-align:top;">:</td><td><div>False</div></td></tr><tr><td style="font-weight:bold;vertical-align:top;">is_pypy</td><td style="vertical-align:top;">:</td><td><div>False</div></td></tr><tr><td style="font-weight:bold;vertical-align:top;">is_source</td><td style="vertical-align:top;">:</td><td><div>True</div></td></tr><tr><td style="font-weight:bold;vertical-align:top;">local_hosts</td><td style="vertical-align:top;">:</td><td><div><table><tr><td><div>::1</div></td></tr><tr><td><div>127.0.1.1</div></td></tr><tr><td><div>::ffff:127.0.0.1</div></td></tr><tr><td><div>127.0.0.1</div></td></tr><tr><td><div>Mohit-dellinspiron</div></td></tr></table></div></td></tr><tr><td style="font-weight:bold;vertical-align:top;">path_info</td><td style="vertical-align:top;">:</td><td><div>/quiz/default/question_display/Hard/A/Football/Sports/1/None</div></td></tr><tr><td style="font-weight:bold;vertical-align:top;">query_string</td><td style="vertical-align:top;">:</td><td><div></div></td></tr><tr><td style="font-weight:bold;vertical-align:top;">remote_addr</td><td style="vertical-align:top;">:</td><td><div>127.0.0.1</div></td></tr><tr><td style="font-weight:bold;vertical-align:top;">remote_port</td><td style="vertical-align:top;">:</td><td><div>58850</div></td></tr><tr><td style="font-weight:bold;vertical-align:top;">request_method</td><td style="vertical-align:top;">:</td><td><div>GET</div></td></tr><tr><td style="font-weight:bold;vertical-align:top;">request_uri</td><td style="vertical-align:top;">:</td><td><div>/quiz/default/question_display/Hard/A/Football/Sports/1/None</div></td></tr><tr><td style="font-weight:bold;vertical-align:top;">script_name</td><td style="vertical-align:top;">:</td><td><div></div></td></tr><tr><td style="font-weight:bold;vertical-align:top;">server_name</td><td style="vertical-align:top;">:</td><td><div>Mohit-dellinspiron</div></td></tr><tr><td style="font-weight:bold;vertical-align:top;">server_port</td><td style="vertical-align:top;">:</td><td><div>8000</div></td></tr><tr><td style="font-weight:bold;vertical-align:top;">server_protocol</td><td style="vertical-align:top;">:</td><td><div>HTTP/1.1</div></td></tr><tr><td style="font-weight:bold;vertical-align:top;">server_software</td><td style="vertical-align:top;">:</td><td><div>Rocket 1.2.6</div></td></tr><tr><td style="font-weight:bold;vertical-align:top;">web2py_path</td><td style="vertical-align:top;">:</td><td><div>/home/mohit/itws_project/web2py</div></td></tr><tr><td style="font-weight:bold;vertical-align:top;">web2py_version</td><td style="vertical-align:top;">:</td><td><div>2.13.4-stable+timestamp.2015.12.26.04.59.39</div></td></tr><tr><td style="font-weight:bold;vertical-align:top;">wsgi.errors</td><td style="vertical-align:top;">:</td><td><div>&lt;open file &#x27;&lt;stderr&gt;&#x27;, mode &#x27;w&#x27; at 0x7fb4a9afc1e0&gt;</div></td></tr><tr><td style="font-weight:bold;vertical-align:top;">wsgi.file_wrapper</td><td style="vertical-align:top;">:</td><td><div>&lt;class wsgiref.util.FileWrapper at 0x7fb4a56c8668&gt;</div></td></tr><tr><td style="font-weight:bold;vertical-align:top;">wsgi.input</td><td style="vertical-align:top;">:</td><td><div>&lt;socket._fileobject object at 0x7fb47a2e0950&gt;</div></td></tr><tr><td style="font-weight:bold;vertical-align:top;">wsgi.multiprocess</td><td style="vertical-align:top;">:</td><td><div>False</div></td></tr><tr><td style="font-weight:bold;vertical-align:top;">wsgi.multithread</td><td style="vertical-align:top;">:</td><td><div>True</div></td></tr><tr><td style="font-weight:bold;vertical-align:top;">wsgi.run_once</td><td style="vertical-align:top;">:</td><td><div>False</div></td></tr><tr><td style="font-weight:bold;vertical-align:top;">wsgi.url_scheme</td><td style="vertical-align:top;">:</td><td><div>http</div></td></tr><tr><td style="font-weight:bold;vertical-align:top;">wsgi.version</td><td style="vertical-align:top;">:</td><td><div><table><tr><td><div>1</div></td></tr><tr><td><div>0</div></td></tr></table></div></td></tr><tr><td style="font-weight:bold;vertical-align:top;">wsgi_errors</td><td style="vertical-align:top;">:</td><td><div>&lt;open file &#x27;&lt;stderr&gt;&#x27;, mode &#x27;w&#x27; at 0x7fb4a9afc1e0&gt;</div></td></tr><tr><td style="font-weight:bold;vertical-align:top;">wsgi_file_wrapper</td><td style="vertical-align:top;">:</td><td><div>&lt;class wsgiref.util.FileWrapper at 0x7fb4a56c8668&gt;</div></td></tr><tr><td style="font-weight:bold;vertical-align:top;">wsgi_input</td><td style="vertical-align:top;">:</td><td><div>&lt;socket._fileobject object at 0x7fb47a2e0950&gt;</div></td></tr><tr><td style="font-weight:bold;vertical-align:top;">wsgi_multiprocess</td><td style="vertical-align:top;">:</td><td><div>False</div></td></tr><tr><td style="font-weight:bold;vertical-align:top;">wsgi_multithread</td><td style="vertical-align:top;">:</td><td><div>True</div></td></tr><tr><td style="font-weight:bold;vertical-align:top;">wsgi_run_once</td><td style="vertical-align:top;">:</td><td><div>False</div></td></tr><tr><td style="font-weight:bold;vertical-align:top;">wsgi_url_scheme</td><td style="vertical-align:top;">:</td><td><div>http</div></td></tr><tr><td style="font-weight:bold;vertical-align:top;">wsgi_version</td><td style="vertical-align:top;">:</td><td><div><table><tr><td><div>1</div></td></tr><tr><td><div>0</div></td></tr></table></div></td></tr></table></div></td></tr><tr><td style="font-weight:bold;vertical-align:top;">extension</td><td style="vertical-align:top;">:</td><td><div>html</div></td></tr><tr><td style="font-weight:bold;vertical-align:top;">folder</td><td style="vertical-align:top;">:</td><td><div>/home/mohit/itws_project/web2py/applications/quiz/</div></td></tr><tr><td style="font-weight:bold;vertical-align:top;">function</td><td style="vertical-align:top;">:</td><td><div>question_display</div></td></tr><tr><td style="font-weight:bold;vertical-align:top;">global_settings</td><td style="vertical-align:top;">:</td><td><div><table><tr><td style="font-weight:bold;vertical-align:top;">app_folders</td><td style="vertical-align:top;">:</td><td><div>set([&#x27;/home/mohit/itws_project/web2py/applications/welcome/&#x27;, &#x27;/home/mohit/itws_project/web2py/applications/quiz/&#x27;])</div></td></tr><tr><td style="font-weight:bold;vertical-align:top;">applications_parent</td><td style="vertical-align:top;">:</td><td><div>/home/mohit/itws_project/web2py</div></td></tr><tr><td style="font-weight:bold;vertical-align:top;">cmd_args</td><td style="vertical-align:top;">:</td><td><div><table></table></div></td></tr><tr><td style="font-weight:bold;vertical-align:top;">cmd_options</td><td style="vertical-align:top;">:</td><td><div>&lt;Values at 0x7fb4a5693a28: {&#x27;verbose&#x27;: False, &#x27;ip&#x27;: &#x27;127.0.0.1&#x27;, &#x27;debuglevel&#x27;: 30, &#x27;with_scheduler&#x27;: False, &#x27;ips&#x27;: [&#x27;127.0.1.1&#x27;], &#x27;shutdown_timeout&#x27;: 5, &#x27;taskbar&#x27;: False, &#x27;with_coverage&#x27;: False, &#x27;scheduler_groups&#x27;: None, &#x27;port&#x27;: 8000, &#x27;maxthreads&#x27;: None, &#x27;softcron&#x27;: False, &#x27;server_name&#x27;: &#x27;Mohit-dellinspiron&#x27;, &#x27;bpython&#x27;: False, &#x27;nogui&#x27;: True, &#x27;pid_filename&#x27;: &#x27;httpserver.pid&#x27;, &#x27;print_errors&#x27;: False, &#x27;extcron&#x27;: False, &#x27;runcron&#x27;: False, &#x27;run_system_tests&#x27;: False, &#x27;test&#x27;: None, &#x27;folder&#x27;: &#x27;/home/mohit/itws_project/web2py&#x27;, &#x27;config&#x27;: &#x27;&#x27;, &#x27;minthreads&#x27;: None, &#x27;shell&#x27;: None, &#x27;run&#x27;: &#x27;&#x27;, &#x27;log_filename&#x27;: &#x27;httpserver.log&#x27;, &#x27;profiler_dir&#x27;: None, &#x27;args&#x27;: [&#x27;&#x27;], &#x27;socket_timeout&#x27;: 5, &#x27;ssl_ca_certificate&#x27;: None, &#x27;scheduler&#x27;: None, &#x27;interfaces&#x27;: None, &#x27;ssl_private_key&#x27;: &#x27;&#x27;, &#x27;gae&#x27;: None, &#x27;password&#x27;: &#x27;m&#x27;, &#x27;request_queue_size&#x27;: 5, &#x27;ssl_certificate&#x27;: &#x27;&#x27;, &#x27;cronjob&#x27;: False, &#x27;numthreads&#x27;: None, &#x27;quiet&#x27;: False, &#x27;import_models&#x27;: False, &#x27;timeout&#x27;: 10, &#x27;plain&#x27;: False, &#x27;nobanner&#x27;: False}&gt;</div></td></tr><tr><td style="font-weight:bold;vertical-align:top;">db_sessions</td><td style="vertical-align:top;">:</td><td><div>set([])</div></td></tr><tr><td style="font-weight:bold;vertical-align:top;">debugging</td><td style="vertical-align:top;">:</td><td><div>False</div></td></tr><tr><td style="font-weight:bold;vertical-align:top;">gluon_parent</td><td style="vertical-align:top;">:</td><td><div>/home/mohit/itws_project/web2py</div></td></tr><tr><td style="font-weight:bold;vertical-align:top;">is_jython</td><td style="vertical-align:top;">:</td><td><div>False</div></td></tr><tr><td style="font-weight:bold;vertical-align:top;">is_pypy</td><td style="vertical-align:top;">:</td><td><div>False</div></td></tr><tr><td style="font-weight:bold;vertical-align:top;">is_source</td><td style="vertical-align:top;">:</td><td><div>True</div></td></tr><tr><td style="font-weight:bold;vertical-align:top;">local_hosts</td><td style="vertical-align:top;">:</td><td><div><table><tr><td><div>::1</div></td></tr><tr><td><div>127.0.1.1</div></td></tr><tr><td><div>::ffff:127.0.0.1</div></td></tr><tr><td><div>127.0.0.1</div></td></tr><tr><td><div>Mohit-dellinspiron</div></td></tr></table></div></td></tr><tr><td style="font-weight:bold;vertical-align:top;">web2py_version</td><td style="vertical-align:top;">:</td><td><div>2.13.4-stable+timestamp.2015.12.26.04.59.39</div></td></tr></table></div></td></tr><tr><td style="font-weight:bold;vertical-align:top;">is_https</td><td style="vertical-align:top;">:</td><td><div>False</div></td></tr><tr><td style="font-weight:bold;vertical-align:top;">is_local</td><td style="vertical-align:top;">:</td><td><div>True</div></td></tr><tr><td style="font-weight:bold;vertical-align:top;">is_restful</td><td style="vertical-align:top;">:</td><td><div>False</div></td></tr><tr><td style="font-weight:bold;vertical-align:top;">is_scheduler</td><td style="vertical-align:top;">:</td><td><div>False</div></td></tr><tr><td style="font-weight:bold;vertical-align:top;">is_shell</td><td style="vertical-align:top;">:</td><td><div>False</div></td></tr><tr><td style="font-weight:bold;vertical-align:top;">now</td><td style="vertical-align:top;">:</td><td><div>datetime.datetime(2016, 6, 2, 16, 14, 10, 747791)</div></td></tr><tr><td style="font-weight:bold;vertical-align:top;">raw_args</td><td style="vertical-align:top;">:</td><td><div>Hard/A/Football/Sports/1/None</div></td></tr><tr><td style="font-weight:bold;vertical-align:top;">raw_extension</td><td style="vertical-align:top;">:</td><td><div>None</div></td></tr><tr><td style="font-weight:bold;vertical-align:top;">url</td><td style="vertical-align:top;">:</td><td><div>/quiz/default/question_display/Hard/A/Football/Sports/1/None</div></td></tr><tr><td style="font-weight:bold;vertical-align:top;">utcnow</td><td style="vertical-align:top;">:</td><td><div>datetime.datetime(2016, 6, 2, 10, 44, 10, 747808)</div></td></tr><tr><td style="font-weight:bold;vertical-align:top;">wsgi</td><td style="vertical-align:top;">:</td><td><div>&lt;gluon.main.LazyWSGI object at 0x7fb47a2cb090&gt;</div></td></tr></table></div>'
tRp58
sS'frames'
p59
(lp60
(dp61
S'file'
p62
S'/home/mohit/itws_project/web2py/gluon/restricted.py'
p63
sS'dump'
p64
(dp65
S'environment'
p66
S"{'A': <Rows (0)>, 'ANY_OF': <class 'gluon.validators.ANY_OF'>, 'ASSIGNJS': <function ASSIGNJS>, 'AppConfig': <function AppConfig>, 'Auth': <class 'gluon.tools.Auth'>, 'B': <Rows (0)>, 'BEAUTIFY': <class 'gluon.html.BEAUTIFY'>, 'BODY': <class 'gluon.html.BODY'>, 'BR': <class 'gluon.html.BR'>, 'BUTTON': <class 'gluon.html.BUTTON'>, ...}"
p67
sS'ccode'
p68
S'<code object <module> at 0x7fb47a337bb0, file "/...uiz/views/default/question_display.html", line 1>'
p69
ssS'lnum'
p70
I227
sS'lines'
p71
(dp72
I224
S'            ccode = code'
p73
sI225
S'        else:'
p74
sI226
S'            ccode = compile2(code, layer)'
p75
sI227
S'        exec ccode in environment'
p76
sI228
S'    except HTTP:'
p77
sI229
S'        raise'
p78
sI230
S'    except RestrictedError:'
p79
sI231
S'        # do not encapsulate (obfuscate) the original RestrictedError'
p80
sI222
S'    try:'
p81
sI223
S'        if isinstance(code, types.CodeType):'
p82
ssS'call'
p83
S'(code=\'response.write(\\\'<style>\\\\n* {\\\\n  box-sizing: bord...utton" >QUIZ DONE</button> </a>\\\\n\\\', escape=False)\', environment={\'A\': <Rows (0)>, \'ANY_OF\': <class \'gluon.validators.ANY_OF\'>, \'ASSIGNJS\': <function ASSIGNJS>, \'AppConfig\': <function AppConfig>, \'Auth\': <class \'gluon.tools.Auth\'>, \'B\': <Rows (0)>, \'BEAUTIFY\': <class \'gluon.html.BEAUTIFY\'>, \'BODY\': <class \'gluon.html.BODY\'>, \'BR\': <class \'gluon.html.BR\'>, \'BUTTON\': <class \'gluon.html.BUTTON\'>, ...}, layer=\'/home/mohit/itws_project/web2py/applications/quiz/views/default/question_display.html\')'
p84
sS'func'
p85
S'restricted'
p86
sa(dp87
g62
S'/home/mohit/itws_project/web2py/applications/quiz/views/default/question_display.html'
p88
sg64
(dp89
S'builtinfloat'
p90
S"<type 'float'>"
p91
sS'left'
p92
S'undefined'
p93
ssg70
I10
sg71
(dp94
I1
S'response.write(\'<style>\\n* {\\n  box-sizing: border-box;\\n  -moz-box-sizing: border-box;\\n  -webkit-box-sizing: border-box;\\n  font-family: arial;\\n}\\n\\n#pause {\\n    float: left;\\n}\\n\\n#done {\\n    float: right;\\n}\\n\\n#dock {\\n  text-align: center;\\n  font-family: arial;\\n  \\n}\\n    @font-face{\\n        font-family: qdi;\\n       \\n        src:url("\', escape=False)'
p95
sI2
S"response.write(URL('static','css/Fontin-Bold.otf'))"
p96
sI3
S'response.write(\'")\\n    }     \\n            @font-face{\\n        font-family: qdop;\\n      \\n        src:url("\', escape=False)'
p97
sI4
S"response.write(URL('static','css/Fontin-Regular.otf'))"
p98
sI5
S'response.write(\'")\\n    }\\n\\n.pagination {\\n  list-style: none;\\n  display: inline-block;\\n  padding: 0;\\n  margin-top: 10px;\\n}\\n.pagination li {\\n  display: inline;\\n  text-align: center;\\n}\\n.pagination a {\\n  float: left;\\n  display: block;\\n  font-size: 14px;\\n  text-decoration: none;\\n  padding: 5px 12px;\\n  color: #fff;\\n  margin-left: -1px;\\n  border: 1px solid transparent;\\n  line-height: 1.5;\\n}\\n.pagination a.active {\\n  cursor: default;\\n}\\n.pagination a:active {\\n  outline: none;\\n}\\n\\n.modal-4 a {\\n  margin: 0 5px;\\n  padding: 0;\\n  width: 30px;\\n  height: 30px;\\n  line-height: 30px;\\n  -moz-border-radius: 100%;\\n  -webkit-border-radius: 100%;\\n  border-radius: 100%;\\n  background-color: rgb(255, 71, 26);\\n}\\n.modal-4 a.prev {\\n  -moz-border-radius: 50px 0 0 50px;\\n  -webkit-border-radius: 50px;\\n  border-radius: 50px 0 0 50px;\\n  width: 100px;\\n}\\n.modal-4 a.next {\\n  -moz-border-radius: 0 50px 50px 0;\\n  -webkit-border-radius: 0;\\n  border-radius: 0 50px 50px 0;\\n  width: 100px;\\n}\\n.modal-4 a:hover {\\n  background-color: rgb(204, 0, 102);\\n}\\n.modal-4 a.active, .modal-4 a:active {\\n  background-color: rgb(204, 0, 102);\\n}\\n\\n#pic{\\n    background-image: url("\', escape=False)'
p99
sI6
S"response.write(URL('static','images/old_map_@2X.jpg'))"
p100
sI7
S'response.write(\'");\\n    background-repeat: no-repeat;\\n    background-size: cover;\\n    padding-top: 2%;\\n    height: 70%;\\n} \\n#dq{\\n    height: 20%;\\n    text-align: center;\\n    width: 70%;\\n    color: white;\\n    background-color: rgb(13, 13, 13);\\n    opacity: 0.6;\\n    padding-top: 2%;\\n    font-family: qdi;\\n    font-size: 35px;\\n    border-radius: 6%;\\n    margin-left: 14%;\\n\\n}\\n     #opt{\\n        height: 40%;\\n        background-color: rgb(13, 13, 13);\\n        opacity: 0.5;\\n          border-radius: 6%;\\n         margin-top: 3%;\\n        margin-left: 35%;\\n         border-radius: 6%;\\n         font-family: qdop;\\n         padding-left: 10%;\\n         padding-top: 1%;\\n         font-size: 120%;\\n         color: white;\\n        text-align: left;\\n        width: 30%;\\n    }\\n    \\n    #paus {\\n        height: 15%;\\n        width: 30%;\\n        background-color: rgb(13, 13, 13);\\n        opacity: 0.5;\\n          border-radius: 6%;\\n         margin-top: 3%;\\n        margin-left: 35%;\\n         border-radius: 6%;\\n         font-family: qdop;\\n         \\n         padding-top: 0.3%;\\n         font-size: 120%;\\n         color: white;\\n        text-align: center;\\n    }\\n    \\n    #f{\\n        \\n        height: 25%;\\n        background-color:rgb(13, 13, 13);\\n        display:inline-block;\\n        border-radius: 6%;\\n      color: white;\\n        opacity: 0.5;\\n       margin-top: 3%;\\n        padding-left: 14%;\\n        width: 32%;\\n        margin-left: 14%;\\n    }\\n    form{\\n        color: white;\\n    }\\n   \\n</style>\\n\\n\\n\\n\\n\\n\\n\\n\\n\\n\', escape=False)'
p101
sI8
S'if toshow == 1:'
p102
sI9
S'    response.write(\'\\n<div id="pic">\\n<div id="dq">\\n    \', escape=False)'
p103
sI10
S'    response.write(anr.Q1)'
p104
sI11
S'    response.write(\'\\n</div>\\n    <div id="opt">\\n        \', escape=False)'
p105
sI12
S'    response.write(form1.custom.begin)'
p106
sI13
S"    response.write('\\n', escape=False)"
p107
sI14
S'    response.write(form1.custom.widget.Ans1[0])'
p108
sI15
S"    response.write(') ', escape=False)"
p109
sI16
S'    response.write(ar.A1)'
p110
sI17
S"    response.write('<br>\\n', escape=False)"
p111
sI18
S'    response.write(form1.custom.widget.Ans1[1])'
p112
sI19
S"    response.write(') ', escape=False)"
p113
sI20
S'    response.write(br.B1)'
p114
ssg83
S'()'
p115
sg85
S'<module>'
p116
sasS'pyver'
p117
S'Python 2.7.10: /usr/bin/python (prefix: /usr)'
p118
sS'session'
p119
g57
(S's\x94\x0c\x00\x00<div><table><tr><td style="font-weight:bold;vertical-align:top;">auth</td><td style="vertical-align:top;">:</td><td><div><table><tr><td style="font-weight:bold;vertical-align:top;">expiration</td><td style="vertical-align:top;">:</td><td><div>3600</div></td></tr><tr><td style="font-weight:bold;vertical-align:top;">hmac_key</td><td style="vertical-align:top;">:</td><td><div>7f0e8321-5506-45e9-abe6-73bbe66fff8e</div></td></tr><tr><td style="font-weight:bold;vertical-align:top;">last_visit</td><td style="vertical-align:top;">:</td><td><div>datetime.datetime(2016, 6, 2, 16, 13, 28, 758598)</div></td></tr><tr><td style="font-weight:bold;vertical-align:top;">remember_me</td><td style="vertical-align:top;">:</td><td><div>False</div></td></tr><tr><td style="font-weight:bold;vertical-align:top;">user</td><td style="vertical-align:top;">:</td><td><div><table><tr><td style="font-weight:bold;vertical-align:top;">DOB</td><td style="vertical-align:top;">:</td><td><div>datetime.date(1996, 11, 30)</div></td></tr><tr><td style="font-weight:bold;vertical-align:top;">Description</td><td style="vertical-align:top;">:</td><td><div>Fun-loving and in quest of knowledge</div></td></tr><tr><td style="font-weight:bold;vertical-align:top;">Gender</td><td style="vertical-align:top;">:</td><td><div>Male</div></td></tr><tr><td style="font-weight:bold;vertical-align:top;">Image</td><td style="vertical-align:top;">:</td><td><div>auth_user.Image.9353f12c2786441f.627261696e2e6a706567.jpeg</div></td></tr><tr><td style="font-weight:bold;vertical-align:top;">Interest</td><td style="vertical-align:top;">:</td><td><div>Quiz , Sports, Science</div></td></tr><tr><td style="font-weight:bold;vertical-align:top;">Profession</td><td style="vertical-align:top;">:</td><td><div>Student</div></td></tr><tr><td style="font-weight:bold;vertical-align:top;">email</td><td style="vertical-align:top;">:</td><td><div>mohit.chandra@research.iiit.ac.in</div></td></tr><tr><td style="font-weight:bold;vertical-align:top;">first_name</td><td style="vertical-align:top;">:</td><td><div>Mohit</div></td></tr><tr><td style="font-weight:bold;vertical-align:top;">id</td><td style="vertical-align:top;">:</td><td><div>7L</div></td></tr><tr><td style="font-weight:bold;vertical-align:top;">last_name</td><td style="vertical-align:top;">:</td><td><div>Chandra</div></td></tr><tr><td style="font-weight:bold;vertical-align:top;">registration_id</td><td style="vertical-align:top;">:</td><td><div></div></td></tr><tr><td style="font-weight:bold;vertical-align:top;">registration_key</td><td style="vertical-align:top;">:</td><td><div></div></td></tr><tr><td style="font-weight:bold;vertical-align:top;">reset_password_key</td><td style="vertical-align:top;">:</td><td><div></div></td></tr></table></div></td></tr><tr><td style="font-weight:bold;vertical-align:top;">user_groups</td><td style="vertical-align:top;">:</td><td><div><table><tr><td style="font-weight:bold;vertical-align:top;">7</td><td style="vertical-align:top;">:</td><td><div>user_7</div></td></tr></table></div></td></tr></table></div></td></tr><tr><td style="font-weight:bold;vertical-align:top;">flash</td><td style="vertical-align:top;">:</td><td><div>None</div></td></tr></table></div>'
tRp120
sS'etype'
p121
S"<type 'exceptions.NameError'>"
p122
sS'date'
p123
S'Thu Jun  2 16:14:10 2016'
p124
sS'response'
p125
g57
(S's\x81?\x00\x00<div><table><tr><td style="font-weight:bold;vertical-align:top;">body</td><td style="vertical-align:top;">:</td><td><div>&lt;cStringIO.StringO object at 0x7fb49c37e148&gt;</div></td></tr><tr><td style="font-weight:bold;vertical-align:top;">cookies</td><td style="vertical-align:top;">:</td><td><div><table><tr><td style="font-weight:bold;vertical-align:top;">session_id_quiz</td><td style="vertical-align:top;">:</td><td><div>127.0.0.1-f945e8d6-a247-4cf2-8d0e-f83604e99ee3<table><tr><td style="font-weight:bold;vertical-align:top;">comment</td><td style="vertical-align:top;">:</td><td><div></div></td></tr><tr><td style="font-weight:bold;vertical-align:top;">domain</td><td style="vertical-align:top;">:</td><td><div></div></td></tr><tr><td style="font-weight:bold;vertical-align:top;">expires</td><td style="vertical-align:top;">:</td><td><div></div></td></tr><tr><td style="font-weight:bold;vertical-align:top;">httponly</td><td style="vertical-align:top;">:</td><td><div></div></td></tr><tr><td style="font-weight:bold;vertical-align:top;">max-age</td><td style="vertical-align:top;">:</td><td><div></div></td></tr><tr><td style="font-weight:bold;vertical-align:top;">path</td><td style="vertical-align:top;">:</td><td><div>/</div></td></tr><tr><td style="font-weight:bold;vertical-align:top;">secure</td><td style="vertical-align:top;">:</td><td><div></div></td></tr><tr><td style="font-weight:bold;vertical-align:top;">version</td><td style="vertical-align:top;">:</td><td><div></div></td></tr></table></div></td></tr></table></div></td></tr><tr><td style="font-weight:bold;vertical-align:top;">delimiters</td><td style="vertical-align:top;">:</td><td><div><table><tr><td><div>{{</div></td></tr><tr><td><div>}}</div></td></tr></table></div></td></tr><tr><td style="font-weight:bold;vertical-align:top;">files</td><td style="vertical-align:top;">:</td><td><div><table></table></div></td></tr><tr><td style="font-weight:bold;vertical-align:top;">flash</td><td style="vertical-align:top;">:</td><td><div></div></td></tr><tr><td style="font-weight:bold;vertical-align:top;">form_label_separator</td><td style="vertical-align:top;">:</td><td><div></div></td></tr><tr><td style="font-weight:bold;vertical-align:top;">formstyle</td><td style="vertical-align:top;">:</td><td><div>bootstrap3_inline</div></td></tr><tr><td style="font-weight:bold;vertical-align:top;">generic_patterns</td><td style="vertical-align:top;">:</td><td><div><table><tr><td><div>*</div></td></tr></table></div></td></tr><tr><td style="font-weight:bold;vertical-align:top;">google_analytics_id</td><td style="vertical-align:top;">:</td><td><div>None</div></td></tr><tr><td style="font-weight:bold;vertical-align:top;">headers</td><td style="vertical-align:top;">:</td><td><div><table><tr><td style="font-weight:bold;vertical-align:top;">X-Powered-By</td><td style="vertical-align:top;">:</td><td><div>web2py</div></td></tr></table></div></td></tr><tr><td style="font-weight:bold;vertical-align:top;">logo</td><td style="vertical-align:top;">:</td><td><div><a class="navbar-brand" href="http://www.web2py.com/" id="web2py-logo"><b>web<span>2</span>py</b>&trade;&nbsp;</a></div></td></tr><tr><td style="font-weight:bold;vertical-align:top;">menu</td><td style="vertical-align:top;">:</td><td><div><table><tr><td><div><table><tr><td><div>Home</div></td></tr><tr><td><div>False</div></td></tr><tr><td><div>/quiz/default/index</div></td></tr><tr><td><div><table></table></div></td></tr></table></div></td></tr><tr><td><div><table><tr><td><div>My Sites</div></td></tr><tr><td><div>False</div></td></tr><tr><td><div>/admin/default/site</div></td></tr></table></div></td></tr><tr><td><div><table><tr><td><div>This App</div></td></tr><tr><td><div>False</div></td></tr><tr><td><div>#</div></td></tr><tr><td><div><table><tr><td><div><table><tr><td><div>Design</div></td></tr><tr><td><div>False</div></td></tr><tr><td><div>/admin/default/design/quiz</div></td></tr></table></div></td></tr><tr><td><div><li class="divider"></li></div></td></tr><tr><td><div><table><tr><td><div>Controller</div></td></tr><tr><td><div>False</div></td></tr><tr><td><div>/admin/default/edit/quiz/controllers/default.py</div></td></tr></table></div></td></tr><tr><td><div><table><tr><td><div>View</div></td></tr><tr><td><div>False</div></td></tr><tr><td><div>/admin/default/edit/quiz/views/default/question_display.html</div></td></tr></table></div></td></tr><tr><td><div><table><tr><td><div>DB Model</div></td></tr><tr><td><div>False</div></td></tr><tr><td><div>/admin/default/edit/quiz/models/db.py</div></td></tr></table></div></td></tr><tr><td><div><table><tr><td><div>Menu Model</div></td></tr><tr><td><div>False</div></td></tr><tr><td><div>/admin/default/edit/quiz/models/menu.py</div></td></tr></table></div></td></tr><tr><td><div><table><tr><td><div>Config.ini</div></td></tr><tr><td><div>False</div></td></tr><tr><td><div>/admin/default/edit/quiz/private/appconfig.ini</div></td></tr></table></div></td></tr><tr><td><div><table><tr><td><div>Layout</div></td></tr><tr><td><div>False</div></td></tr><tr><td><div>/admin/default/edit/quiz/views/layout.html</div></td></tr></table></div></td></tr><tr><td><div><table><tr><td><div>Stylesheet</div></td></tr><tr><td><div>False</div></td></tr><tr><td><div>/admin/default/edit/quiz/static/css/web2py-bootstrap3.css</div></td></tr></table></div></td></tr><tr><td><div><table><tr><td><div>Database</div></td></tr><tr><td><div>False</div></td></tr><tr><td><div>/quiz/appadmin/index</div></td></tr></table></div></td></tr><tr><td><div><table><tr><td><div>Errors</div></td></tr><tr><td><div>False</div></td></tr><tr><td><div>/admin/default/errors/quiz</div></td></tr></table></div></td></tr><tr><td><div><table><tr><td><div>About</div></td></tr><tr><td><div>False</div></td></tr><tr><td><div>/admin/default/about/quiz</div></td></tr></table></div></td></tr></table></div></td></tr></table></div></td></tr><tr><td><div><table><tr><td><div>web2py.com</div></td></tr><tr><td><div>False</div></td></tr><tr><td><div>#</div></td></tr><tr><td><div><table><tr><td><div><table><tr><td><div>Download</div></td></tr><tr><td><div>False</div></td></tr><tr><td><div>http://www.web2py.com/examples/default/download</div></td></tr></table></div></td></tr><tr><td><div><table><tr><td><div>Support</div></td></tr><tr><td><div>False</div></td></tr><tr><td><div>http://www.web2py.com/examples/default/support</div></td></tr></table></div></td></tr><tr><td><div><table><tr><td><div>Demo</div></td></tr><tr><td><div>False</div></td></tr><tr><td><div>http://web2py.com/demo_admin</div></td></tr></table></div></td></tr><tr><td><div><table><tr><td><div>Quick Examples</div></td></tr><tr><td><div>False</div></td></tr><tr><td><div>http://web2py.com/examples/default/examples</div></td></tr></table></div></td></tr><tr><td><div><table><tr><td><div>FAQ</div></td></tr><tr><td><div>False</div></td></tr><tr><td><div>http://web2py.com/AlterEgo</div></td></tr></table></div></td></tr><tr><td><div><table><tr><td><div>Videos</div></td></tr><tr><td><div>False</div></td></tr><tr><td><div>http://www.web2py.com/examples/default/videos/</div></td></tr></table></div></td></tr><tr><td><div><table><tr><td><div>Free Applications</div></td></tr><tr><td><div>False</div></td></tr><tr><td><div>http://web2py.com/appliances</div></td></tr></table></div></td></tr><tr><td><div><table><tr><td><div>Plugins</div></td></tr><tr><td><div>False</div></td></tr><tr><td><div>http://web2py.com/plugins</div></td></tr></table></div></td></tr><tr><td><div><table><tr><td><div>Recipes</div></td></tr><tr><td><div>False</div></td></tr><tr><td><div>http://web2pyslices.com/</div></td></tr></table></div></td></tr></table></div></td></tr></table></div></td></tr><tr><td><div><table><tr><td><div>Documentation</div></td></tr><tr><td><div>False</div></td></tr><tr><td><div>#</div></td></tr><tr><td><div><table><tr><td><div><table><tr><td><div>Online book</div></td></tr><tr><td><div>False</div></td></tr><tr><td><div>http://www.web2py.com/book</div></td></tr></table></div></td></tr><tr><td><div><li class="divider"></li></div></td></tr><tr><td><div><table><tr><td><div>Preface</div></td></tr><tr><td><div>False</div></td></tr><tr><td><div>http://www.web2py.com/book/default/chapter/00</div></td></tr></table></div></td></tr><tr><td><div><table><tr><td><div>Introduction</div></td></tr><tr><td><div>False</div></td></tr><tr><td><div>http://www.web2py.com/book/default/chapter/01</div></td></tr></table></div></td></tr><tr><td><div><table><tr><td><div>Python</div></td></tr><tr><td><div>False</div></td></tr><tr><td><div>http://www.web2py.com/book/default/chapter/02</div></td></tr></table></div></td></tr><tr><td><div><table><tr><td><div>Overview</div></td></tr><tr><td><div>False</div></td></tr><tr><td><div>http://www.web2py.com/book/default/chapter/03</div></td></tr></table></div></td></tr><tr><td><div><table><tr><td><div>The Core</div></td></tr><tr><td><div>False</div></td></tr><tr><td><div>http://www.web2py.com/book/default/chapter/04</div></td></tr></table></div></td></tr><tr><td><div><table><tr><td><div>The Views</div></td></tr><tr><td><div>False</div></td></tr><tr><td><div>http://www.web2py.com/book/default/chapter/05</div></td></tr></table></div></td></tr><tr><td><div><table><tr><td><div>Database</div></td></tr><tr><td><div>False</div></td></tr><tr><td><div>http://www.web2py.com/book/default/chapter/06</div></td></tr></table></div></td></tr><tr><td><div><table><tr><td><div>Forms and Validators</div></td></tr><tr><td><div>False</div></td></tr><tr><td><div>http://www.web2py.com/book/default/chapter/07</div></td></tr></table></div></td></tr><tr><td><div><table><tr><td><div>Email and SMS</div></td></tr><tr><td><div>False</div></td></tr><tr><td><div>http://www.web2py.com/book/default/chapter/08</div></td></tr></table></div></td></tr><tr><td><div><table><tr><td><div>Access Control</div></td></tr><tr><td><div>False</div></td></tr><tr><td><div>http://www.web2py.com/book/default/chapter/09</div></td></tr></table></div></td></tr><tr><td><div><table><tr><td><div>Services</div></td></tr><tr><td><div>False</div></td></tr><tr><td><div>http://www.web2py.com/book/default/chapter/10</div></td></tr></table></div></td></tr><tr><td><div><table><tr><td><div>Ajax Recipes</div></td></tr><tr><td><div>False</div></td></tr><tr><td><div>http://www.web2py.com/book/default/chapter/11</div></td></tr></table></div></td></tr><tr><td><div><table><tr><td><div>Components and Plugins</div></td></tr><tr><td><div>False</div></td></tr><tr><td><div>http://www.web2py.com/book/default/chapter/12</div></td></tr></table></div></td></tr><tr><td><div><table><tr><td><div>Deployment Recipes</div></td></tr><tr><td><div>False</div></td></tr><tr><td><div>http://www.web2py.com/book/default/chapter/13</div></td></tr></table></div></td></tr><tr><td><div><table><tr><td><div>Other Recipes</div></td></tr><tr><td><div>False</div></td></tr><tr><td><div>http://www.web2py.com/book/default/chapter/14</div></td></tr></table></div></td></tr><tr><td><div><table><tr><td><div>Helping web2py</div></td></tr><tr><td><div>False</div></td></tr><tr><td><div>http://www.web2py.com/book/default/chapter/15</div></td></tr></table></div></td></tr><tr><td><div><table><tr><td><div>Buy web2py\'s book</div></td></tr><tr><td><div>False</div></td></tr><tr><td><div>http://stores.lulu.com/web2py</div></td></tr></table></div></td></tr></table></div></td></tr></table></div></td></tr><tr><td><div><table><tr><td><div>Community</div></td></tr><tr><td><div>False</div></td></tr><tr><td><div>None</div></td></tr><tr><td><div><table><tr><td><div><table><tr><td><div>Groups</div></td></tr><tr><td><div>False</div></td></tr><tr><td><div>http://www.web2py.com/examples/default/usergroups</div></td></tr></table></div></td></tr><tr><td><div><table><tr><td><div>Twitter</div></td></tr><tr><td><div>False</div></td></tr><tr><td><div>http://twitter.com/web2py</div></td></tr></table></div></td></tr><tr><td><div><table><tr><td><div>Live Chat</div></td></tr><tr><td><div>False</div></td></tr><tr><td><div>http://webchat.freenode.net/?channels=web2py</div></td></tr></table></div></td></tr></table></div></td></tr></table></div></td></tr></table></div></td></tr><tr><td style="font-weight:bold;vertical-align:top;">meta</td><td style="vertical-align:top;">:</td><td><div><table><tr><td style="font-weight:bold;vertical-align:top;">author</td><td style="vertical-align:top;">:</td><td><div>Your Name &lt;you@example.com&gt;</div></td></tr><tr><td style="font-weight:bold;vertical-align:top;">description</td><td style="vertical-align:top;">:</td><td><div>a cool new app</div></td></tr><tr><td style="font-weight:bold;vertical-align:top;">generator</td><td style="vertical-align:top;">:</td><td><div>Web2py Web Framework</div></td></tr><tr><td style="font-weight:bold;vertical-align:top;">keywords</td><td style="vertical-align:top;">:</td><td><div>web2py, python, framework</div></td></tr></table></div></td></tr><tr><td style="font-weight:bold;vertical-align:top;">models_to_run</td><td style="vertical-align:top;">:</td><td><div><table><tr><td><div>^\\w+\\.py$</div></td></tr><tr><td><div>^default/\\w+\\.py$</div></td></tr><tr><td><div>^default/question_display/\\w+\\.py$</div></td></tr></table></div></td></tr><tr><td style="font-weight:bold;vertical-align:top;">postprocessing</td><td style="vertical-align:top;">:</td><td><div><table></table></div></td></tr><tr><td style="font-weight:bold;vertical-align:top;">session_client</td><td style="vertical-align:top;">:</td><td><div>127.0.0.1</div></td></tr><tr><td style="font-weight:bold;vertical-align:top;">session_cookie_compression_level</td><td style="vertical-align:top;">:</td><td><div>None</div></td></tr><tr><td style="font-weight:bold;vertical-align:top;">session_cookie_expires</td><td style="vertical-align:top;">:</td><td><div>None</div></td></tr><tr><td style="font-weight:bold;vertical-align:top;">session_cookie_key</td><td style="vertical-align:top;">:</td><td><div>None</div></td></tr><tr><td style="font-weight:bold;vertical-align:top;">session_data_name</td><td style="vertical-align:top;">:</td><td><div>session_data_quiz</div></td></tr><tr><td style="font-weight:bold;vertical-align:top;">session_file</td><td style="vertical-align:top;">:</td><td><div>&lt;open file &#x27;/home/mohit/itws_project/web2py/applications/quiz/sessions/0cc/11f/127.0.0.1-f945e8d6-a247-4cf2-8d0e-f83604e99ee3&#x27;, mode &#x27;rb+&#x27; at 0x7fb49c49fae0&gt;</div></td></tr><tr><td style="font-weight:bold;vertical-align:top;">session_filename</td><td style="vertical-align:top;">:</td><td><div>/home/mohit/itws_project/web2py/applications/quiz/sessions/127.0.0.1-f945e8d6-a247-4cf2-8d0e-f83604e99ee3</div></td></tr><tr><td style="font-weight:bold;vertical-align:top;">session_hash</td><td style="vertical-align:top;">:</td><td><div>bf6daac13b5d728ef5c4999e79e01316</div></td></tr><tr><td style="font-weight:bold;vertical-align:top;">session_id</td><td style="vertical-align:top;">:</td><td><div>127.0.0.1-f945e8d6-a247-4cf2-8d0e-f83604e99ee3</div></td></tr><tr><td style="font-weight:bold;vertical-align:top;">session_id_name</td><td style="vertical-align:top;">:</td><td><div>session_id_quiz</div></td></tr><tr><td style="font-weight:bold;vertical-align:top;">session_locked</td><td style="vertical-align:top;">:</td><td><div>True</div></td></tr><tr><td style="font-weight:bold;vertical-align:top;">session_masterapp</td><td style="vertical-align:top;">:</td><td><div>quiz</div></td></tr><tr><td style="font-weight:bold;vertical-align:top;">session_new</td><td style="vertical-align:top;">:</td><td><div>False</div></td></tr><tr><td style="font-weight:bold;vertical-align:top;">session_storage_type</td><td style="vertical-align:top;">:</td><td><div>file</div></td></tr><tr><td style="font-weight:bold;vertical-align:top;">status</td><td style="vertical-align:top;">:</td><td><div>200</div></td></tr><tr><td style="font-weight:bold;vertical-align:top;">subtitle</td><td style="vertical-align:top;">:</td><td><div></div></td></tr><tr><td style="font-weight:bold;vertical-align:top;">title</td><td style="vertical-align:top;">:</td><td><div>Quiz</div></td></tr><tr><td style="font-weight:bold;vertical-align:top;">view</td><td style="vertical-align:top;">:</td><td><div>default/question_display.html</div></td></tr></table></div>'
tRp126
sS'locals'
p127
(dp128
S'Service'
p129
S"<class 'gluon.tools.Service'>"
p130
sS'IFRAME'
p131
S"<class 'gluon.html.IFRAME'>"
p132
sS'OBJECT'
p133
S"<class 'gluon.html.OBJECT'>"
p134
sS'SQLDB'
p135
S"<class 'pydal.base.DAL'>"
p136
sg119
S"<Storage {'_formkey[ans2/create]': ['f089eb7c-04...gin]': ['6173f05c-2938-42e5-b56c-05432026c343']}>"
p137
sS'LINK'
p138
S"<class 'gluon.html.LINK'>"
p139
sS'BR'
p140
S"<class 'gluon.html.BR'>"
p141
sS'local_import'
p142
S'<function <lambda>>'
p143
sS'OPTGROUP'
p144
S"<class 'gluon.html.OPTGROUP'>"
p145
sS'__package__'
p146
S'None'
p147
sS'row'
p148
S"<Row {'Category': 'Sports', 'Sub_Category': 'Foo...idans = 10)>, 'cans': <Set (cans.qidcans = 10)>}>"
p149
sS'PRE'
p150
S"<class 'gluon.html.PRE'>"
p151
sS'IS_INT_IN_RANGE'
p152
S"<class 'gluon.validators.IS_INT_IN_RANGE'>"
p153
sS'IS_LOWER'
p154
S"<class 'gluon.validators.IS_LOWER'>"
p155
sS'IS_STRONG'
p156
S"<class 'gluon.validators.IS_STRONG'>"
p157
sS'cache'
p158
S'<gluon.cache.Cache object>'
p159
sS'IS_IN_DB'
p160
S"<class 'gluon.validators.IS_IN_DB'>"
p161
sS'TAG'
p162
S'<gluon.html.__TAG__ object>'
p163
sS'SQLField'
p164
S"<class 'pydal.objects.Field'>"
p165
sS'mail'
p166
S'<gluon.tools.Mail object>'
p167
sS'BODY'
p168
S"<class 'gluon.html.BODY'>"
p169
sS'IS_DATE_IN_RANGE'
p170
S"<class 'gluon.validators.IS_DATE_IN_RANGE'>"
p171
sS'toshow'
p172
S'1'
sS'URL'
p173
S'<function URL>'
p174
sS'__file__'
p175
S"'/home/mohit/itws_project/web2py/applications/quiz/views/default/question_display.html'"
p176
sS'db'
p177
S'<DAL uri="sqlite://storage.sqlite">'
p178
sS'auth'
p179
S'<gluon.tools.Auth object>'
p180
sS'P'
S"<class 'gluon.html.P'>"
p181
sS'TFOOT'
p182
S"<class 'gluon.html.TFOOT'>"
p183
sS'XHTML'
p184
S"<class 'gluon.html.XHTML'>"
p185
sS'ON'
p186
S'True'
p187
sS'OL'
p188
S"<class 'gluon.html.OL'>"
p189
sS'TEXTAREA'
p190
S"<class 'gluon.html.TEXTAREA'>"
p191
sS'MENU'
p192
S"<class 'gluon.html.MENU'>"
p193
sS'form3'
p194
S'<gluon.sqlhtml.SQLFORM object>'
p195
sS'form2'
p196
S'<gluon.sqlhtml.SQLFORM object>'
p197
sS'form1'
p198
S'<gluon.sqlhtml.SQLFORM object>'
p199
sS'form5'
p200
S'<gluon.sqlhtml.SQLFORM object>'
p201
sS'form4'
p202
S'<gluon.sqlhtml.SQLFORM object>'
p203
sS'IS_IMAGE'
p204
S"<class 'gluon.validators.IS_IMAGE'>"
p205
sS'EM'
p206
S"<class 'gluon.html.EM'>"
p207
sS'CODE'
p208
S"<class 'gluon.html.CODE'>"
p209
sS'HTTP'
p210
S"<class 'gluon.http.HTTP'>"
p211
sS'HR'
p212
S"<class 'gluon.html.HR'>"
p213
sS'IS_DATETIME'
p214
S"<class 'gluon.validators.IS_DATETIME'>"
p215
sS'STYLE'
p216
S"<class 'gluon.html.STYLE'>"
p217
sS'LABEL'
p218
S"<class 'gluon.html.LABEL'>"
p219
sS'CLEANUP'
p220
S"<class 'gluon.validators.CLEANUP'>"
p221
sS'plugins'
p222
S'<gluon.tools.PluginManager object>'
p223
sS'IS_DATETIME_IN_RANGE'
p224
S"<class 'gluon.validators.IS_DATETIME_IN_RANGE'>"
p225
sS'SELECT'
p226
S"<class 'gluon.html.SELECT'>"
p227
sS'CENTER'
p228
S"<class 'gluon.html.CENTER'>"
p229
sS'Auth'
p230
S"<class 'gluon.tools.Auth'>"
p231
sS'DEVELOPMENT_MENU'
p232
g187
sS'__builtins__'
p233
S"{'ArithmeticError': <type 'exceptions.ArithmeticError'>, 'AssertionError': <type 'exceptions.AssertionError'>, 'AttributeError': <type 'exceptions.AttributeError'>, 'BaseException': <type 'exceptions.BaseException'>, 'BufferError': <type 'exceptions.BufferError'>, 'BytesWarning': <type 'exceptions.BytesWarning'>, 'DeprecationWarning': <type 'exceptions.DeprecationWarning'>, 'EOFError': <type 'exceptions.EOFError'>, 'Ellipsis': Ellipsis, 'EnvironmentError': <type 'exceptions.EnvironmentError'>, ...}"
p234
sS'HTML'
p235
S"<class 'gluon.html.HTML'>"
p236
sS'SQLFORM'
p237
S"<class 'gluon.sqlhtml.SQLFORM'>"
p238
sS'LOAD'
p239
S'<function LOAD>'
p240
sS'redirect'
p241
S'<function redirect>'
p242
sS'C'
S'<Rows (0)>'
p243
sS'FIELDSET'
p244
S"<class 'gluon.html.FIELDSET'>"
p245
sS'IS_EQUAL_TO'
p246
S"<class 'gluon.validators.IS_EQUAL_TO'>"
p247
sS'embed64'
p248
S'<function embed64>'
p249
sS'IS_LIST_OF'
p250
S"<class 'gluon.validators.IS_LIST_OF'>"
p251
sS'INPUT'
p252
S"<class 'gluon.html.INPUT'>"
p253
sS'EMBED'
p254
S"<class 'gluon.html.EMBED'>"
p255
sS'_'
S'<function _>'
p256
sS'myconf'
p257
S"{'forms': {'formstyle': 'bootstrap3_inline', 'se...'you@gmail.com', 'server': 'smtp.gmail.com:587'}}"
p258
sS'H2'
p259
S"<class 'gluon.html.H2'>"
p260
sS'H3'
p261
S"<class 'gluon.html.H3'>"
p262
sS'AppConfig'
p263
S'<function AppConfig>'
p264
sS'H1'
p265
S"<class 'gluon.html.H1'>"
p266
sS'H6'
p267
S"<class 'gluon.html.H6'>"
p268
sS'H4'
p269
S"<class 'gluon.html.H4'>"
p270
sS'H5'
p271
S"<class 'gluon.html.H5'>"
p272
sS'UL'
p273
S"<class 'gluon.html.UL'>"
p274
sS'IS_UPPER'
p275
S"<class 'gluon.validators.IS_UPPER'>"
p276
sS'xmlescape'
p277
S'<function xmlescape>'
p278
sS'IS_TIME'
p279
S"<class 'gluon.validators.IS_TIME'>"
p280
sS'OPTION'
p281
S"<class 'gluon.html.OPTION'>"
p282
sS'TITLE'
p283
S"<class 'gluon.html.TITLE'>"
p284
sS'CRYPT'
p285
S"<class 'gluon.validators.CRYPT'>"
p286
sS'IS_EMPTY_OR'
p287
S"<class 'gluon.validators.IS_EMPTY_OR'>"
p288
sS'MARKMIN'
p289
S"<class 'gluon.html.MARKMIN'>"
p290
sS'__name__'
p291
S"'__restricted__'"
p292
sS'STRONG'
p293
S"<class 'gluon.html.STRONG'>"
p294
sS'COL'
p295
S"<class 'gluon.html.COL'>"
p296
sS'rows'
p297
S'<Rows (1)>'
p298
sS'service'
p299
S'<gluon.tools.Service object>'
p300
sS'SCRIPT'
p301
S"<class 'gluon.html.SCRIPT'>"
p302
sS'TABLE'
p303
S"<class 'gluon.html.TABLE'>"
p304
sS'IS_IPV4'
p305
S"<class 'gluon.validators.IS_IPV4'>"
p306
sS'IS_LENGTH'
p307
S"<class 'gluon.validators.IS_LENGTH'>"
p308
sS'IS_IPV6'
p309
S"<class 'gluon.validators.IS_IPV6'>"
p310
sS'XML'
p311
S"<class 'gluon.html.XML'>"
p312
sS'B'
S'<Rows (0)>'
p313
sS'IMG'
p314
S"<class 'gluon.html.IMG'>"
p315
sS'SQLTABLE'
p316
S"<class 'gluon.sqlhtml.SQLTABLE'>"
p317
sS'IS_MATCH'
p318
S"<class 'gluon.validators.IS_MATCH'>"
p319
sS'IS_ALPHANUMERIC'
p320
S"<class 'gluon.validators.IS_ALPHANUMERIC'>"
p321
sS'resumeid'
p322
S"'None'"
p323
sS'SPAN'
p324
S"<class 'gluon.html.SPAN'>"
p325
sS'IS_JSON'
p326
S"<class 'gluon.validators.IS_JSON'>"
p327
sS'IS_IPADDRESS'
p328
S"<class 'gluon.validators.IS_IPADDRESS'>"
p329
sS'IS_SLUG'
p330
S"<class 'gluon.validators.IS_SLUG'>"
p331
sS'cat'
p332
S"'Sports'"
p333
sS'BEAUTIFY'
p334
S"<class 'gluon.html.BEAUTIFY'>"
p335
sS'META'
p336
S"<class 'gluon.html.META'>"
p337
sS'lvl'
p338
S"'Hard'"
p339
sS'BUTTON'
p340
S"<class 'gluon.html.BUTTON'>"
p341
sS'IS_DATE'
p342
S"<class 'gluon.validators.IS_DATE'>"
p343
sS'IS_EMAIL'
p344
S"<class 'gluon.validators.IS_EMAIL'>"
p345
sS'IS_NOT_EMPTY'
p346
S"<class 'gluon.validators.IS_NOT_EMPTY'>"
p347
sS'IS_FLOAT_IN_RANGE'
p348
S"<class 'gluon.validators.IS_FLOAT_IN_RANGE'>"
p349
sS'TBODY'
p350
S"<class 'gluon.html.TBODY'>"
p351
sS'CAT'
p352
S"<class 'gluon.html.CAT'>"
p353
sS'Field'
p354
S"<class 'pydal.objects.Field'>"
p355
sS'IS_LIST_OF_EMAILS'
p356
S"<class 'gluon.validators.IS_LIST_OF_EMAILS'>"
p357
sS'ans'
p358
S'<Rows (0)>'
p359
sS'DIV'
p360
S"<class 'gluon.html.DIV'>"
p361
sS'LEGEND'
p362
S"<class 'gluon.html.LEGEND'>"
p363
sS'D'
S'<Rows (0)>'
p364
sS'COLGROUP'
p365
S"<class 'gluon.html.COLGROUP'>"
p366
sS'DAL'
p367
S"<class 'pydal.base.DAL'>"
p368
sS'ASSIGNJS'
p369
S'<function ASSIGNJS>'
p370
sS'TR'
p371
S"<class 'gluon.html.TR'>"
p372
sS'LI'
p373
S"<class 'gluon.html.LI'>"
p374
sS'TH'
p375
S"<class 'gluon.html.TH'>"
p376
sS'TD'
p377
S"<class 'gluon.html.TD'>"
p378
sS'PluginManager'
p379
S"<class 'gluon.tools.PluginManager'>"
p380
sS'IS_URL'
p381
S"<class 'gluon.validators.IS_URL'>"
p382
sS'A'
S'<Rows (0)>'
p383
sS'HEAD'
p384
S"<class 'gluon.html.HEAD'>"
p385
sS'subcat'
p386
S"'Football'"
p387
sS'FORM'
p388
S"<class 'gluon.html.FORM'>"
p389
sS'I'
S"<class 'gluon.html.I'>"
p390
sS'IS_NOT_IN_DB'
p391
S"<class 'gluon.validators.IS_NOT_IN_DB'>"
p392
sg125
S"<Storage {'body': <cStringIO.StringO object at 0...ed398>, 'view': 'default/question_display.html'}>"
p393
sS'THEAD'
p394
S"<class 'gluon.html.THEAD'>"
p395
sS'ANY_OF'
p396
S"<class 'gluon.validators.ANY_OF'>"
p397
sS'IS_NULL_OR'
p398
S"<class 'gluon.validators.IS_EMPTY_OR'>"
p399
sS'queid'
p400
S'10L'
p401
sg56
S"<Storage {'_vars': None, 'function': 'question_d...e/mohit/itws_project/web2py/applications/quiz/'}>"
p402
sS'IS_EXPR'
p403
S"<class 'gluon.validators.IS_EXPR'>"
p404
sS'T'
S'<gluon.languages.translator object>'
p405
sS'st'
p406
S"'A'"
p407
sS'IS_IN_SET'
p408
S"<class 'gluon.validators.IS_IN_SET'>"
p409
sS'IS_UPLOAD_FILENAME'
p410
S"<class 'gluon.validators.IS_UPLOAD_FILENAME'>"
p411
sS'TT'
p412
S"<class 'gluon.html.TT'>"
p413
sS'IS_DECIMAL_IN_RANGE'
p414
S"<class 'gluon.validators.IS_DECIMAL_IN_RANGE'>"
p415
sssS'traceback'
p416
S'Traceback (most recent call last):\n  File "/home/mohit/itws_project/web2py/gluon/restricted.py", line 227, in restricted\n    exec ccode in environment\n  File "/home/mohit/itws_project/web2py/applications/quiz/views/default/question_display.html", line 10, in <module>\n    float: left;\nNameError: name \'anr\' is not defined\n'
p417
s.