(dp1
S'output'
p2
S"<type 'exceptions.NameError'> name 'score1' is not defined"
p3
sS'layer'
p4
S'/home/mohit/itws_project/web2py/applications/quiz/views/default/marksheet.html'
p5
sS'code'
p6
S'response.write(\'<style>\\n#yrf{\\n    width:40%;\\n    height: 50%;\\n   display: inline-block;\\n   \\n    background-color: #f0f0f0;\\n}\\n .round-button {\\n\\twidth:25%;\\n}\\n.round-button-circle {\\n\\twidth: 55%;\\n\\theight:0;\\n\\tpadding-bottom: 55%;\\n    border-radius: 50%;\\n    margin-left: 88%;\\n\\tborder:10px solid rgb(230, 92, 0) ;\\n    overflow:hidden;\\n    \\n    background:rgb(255, 204, 102) ; \\n    box-shadow: 0 0 3px gray;\\n}\\n.round-button-circle:hover {\\n\\tbackground-color:rgb(230, 92, 0);\\n}\\n.round-button a {\\n    display:block;\\n\\tfloat:left;\\n\\twidth:100%;\\n\\tpadding-top:50%;\\n    padding-bottom:50%;\\n\\tline-height:1em;\\n\\tmargin-top:-0.5em;\\n    \\n\\ttext-align:center;\\n\\tcolor:#e2eaf3;\\n    font-family:Verdana;\\n    font-size:1.2em;\\n    font-weight:bold;\\n    text-decoration:none;\\n}\\n    \\n    #feedfo{\\n        width: 35%;\\n        height: 25%;\\n        background-color:  rgb(255, 204, 102);\\n        padding-left: 27%;\\n        border-radius: 5%;\\n        margin-bottom: 8%;\\n    }\\n    \\n    #can{\\n        width: 40%;\\n        height: 50%;\\n        display: inline-block;\\n        background-color: #f0f0f0;\\n        margin-top: 1%;\\n        vertical-align: top;\\n    }\\n   \\n    #feed{\\n        width: 41%;\\n        height: 37%;\\n        position: right;\\n        display: inline-block;\\n        vertical-align: top;\\n        margin-left: 1.4%;\\n        padding-top: 7%;\\n        margin-top: 1%;\\n        padding-left: 16%;\\n        background-color: #f0f0f0;\\n    }\\n      @font-face{\\n        font-family: qdi;\\n       \\n        src:url("\', escape=False)\nresponse.write(URL(\'static\',\'css/Fontin-Bold.otf\'))\nresponse.write(\'")\\n    }     \\n            @font-face{\\n        font-family: qdop;\\n      \\n        src:url("\', escape=False)\nresponse.write(URL(\'static\',\'css/Fontin-Regular.otf\'))\nresponse.write(\'")\\n    }\\n\\n    #sco{\\n        width: 57%;\\n        height: 50%;\\n        display: inline-block;\\n        position: right;\\n        margin-left: 1.5%;\\n      \\n        background-color: #f3f3f3;\\n        vertical-align: top;\\n        \\n    }\\n    .circle{\\n        border-radius: 100%;\\n        width: 12%;\\n        height: 20%;\\n        background-color: rgb(255, 92, 51);\\n        display: inline-block;\\n        text-align: center;\\n        padding-top: 3%;\\n        font-size: 210%;\\n        margin-left: 6%;\\n    }\\n    \\n    .circle1{\\n        border-radius: 100%;\\n        width: 12%;\\n        height: 20%;\\n        background-color: rgb(92, 214, 92);\\n        display: inline-block;\\n        text-align: center;\\n        padding-top: 3%;\\n        font-size: 210%;\\n        margin-left: 6%;\\n    }\\n    \\n    #total{\\n        width: 50%;\\n        height: 20%;\\n        margin-top: 8%;\\n        background-color: rgb(255, 153, 0);\\n        opacity: 0.5;\\n        margin-left: 25%;\\n        text-align: center;\\n        font-family: qdop;\\n        padding-top: 3%;\\n        font-size: 240%;\\n        border-radius: 6%;\\n    }\\n    #hea{\\n        width: 50%;\\n        height: 18%;\\n        margin-left: 23%;\\n        position: center;\\n        border-radius: 8%;\\n       padding-top: 2%;\\n        background-color:rgb(230, 92, 0);\\n    }\\n    h1{\\n        text-align: center;\\n        font-family: qdi;\\n    }\\n    #res{\\n        width: 50%;\\n        height: 10%;\\n        background-color:rgb(255, 204, 102) ;\\n        margin-top: 3%;\\n        margin-left: 23%;\\n        text-align: center;\\n        border-radius: 6%;\\n        font-family: qdop;\\n        font-size: 180%;\\n    }\\n    \\n    \\n  \\n\\n    \\n</style>\\n\\n\\n<title>Quiz Mate- Marksheet</title>\\n\\n<div id="yrf">\\n    <div id="hea">\\n<h1>\\n    Your Responses\\n</h1>\\n    </div>\\n    \', escape=False)\nif line.marked1=="|A|":\n    response.write(\'\\n     <div id="res">A</div>\\n   \\n     \', escape=False)\nelif line.marked1=="|B|":\n    response.write(\'\\n     <div id="res">B</div>\\n\\n     \', escape=False)\nelif line.marked1=="|C|":\n    response.write(\'\\n     <div id="res">C</div>\\n\\n     \', escape=False)\nelif line.marked1=="|D|":\n    response.write(\'\\n     <div id="res">D</div>\\n\\n    \', escape=False)\nelse:\n    response.write(\'\\n         <div id="res">None</div>\\n    \', escape=False)\n    pass\nresponse.write(\'\\n    \\n    \\n    \', escape=False)\nif line.marked2=="|A|":\n    response.write(\'\\n     <div id="res">A</div>\\n   \\n     \', escape=False)\nelif line.marked2=="|B|":\n    response.write(\'\\n     <div id="res">B</div>\\n   \\n     \', escape=False)\nelif line.marked2=="|C|":\n    response.write(\'\\n     <div id="res">C</div>\\n    \\n     \', escape=False)\nelif line.marked2=="|D|":\n    response.write(\'\\n     <div id="res">D</div>\\n   \\n    \', escape=False)\nelse:\n    response.write(\'\\n         <div id="res">None</div>\\n    \', escape=False)\n    pass\nresponse.write(\'\\n    \\n    \', escape=False)\nif line.marked3=="|A|":\n    response.write(\'\\n     <div id="res">A</div>\\n   \\n     \', escape=False)\nelif line.marked3=="|B|":\n    response.write(\'\\n     <div id="res">B</div>\\n    \\n     \', escape=False)\nelif line.marked3=="|C|":\n    response.write(\'\\n     <div id="res">C</div>\\n    \\n     \', escape=False)\nelif line.marked3=="|D|":\n    response.write(\'\\n     <div id="res">D</div>\\n    \\n    \', escape=False)\nelse:\n    response.write(\'\\n         <div id="res">None</div>\\n    \', escape=False)\n    pass\nresponse.write(\'\\n    \\n    \', escape=False)\nif line.marked4=="|A|":\n    response.write(\'\\n     <div id="res">A</div>\\n \\n     \', escape=False)\nelif line.marked4=="|B|":\n    response.write(\'\\n     <div id="res">B</div>\\n   \\n     \', escape=False)\nelif line.marked4=="|C|":\n    response.write(\'\\n     <div id="res">C</div>\\n    \\n     \', escape=False)\nelif line.marked4=="|D|":\n    response.write(\'\\n     <div id="res">D</div>\\n    \\n    \', escape=False)\nelse:\n    response.write(\'\\n         <div id="res">None</div>\\n    \', escape=False)\n    pass\nresponse.write(\'\\n    \\n    \', escape=False)\nif line.marked5=="|A|":\n    response.write(\'\\n     <div id="res">A</div>\\n   \\n     \', escape=False)\nelif line.marked5=="|B|":\n    response.write(\'\\n     <div id="res">B</div>\\n    \\n     \', escape=False)\nelif line.marked5=="|C|":\n    response.write(\'\\n     <div id="res">C</div>\\n    \\n     \', escape=False)\nelif line.marked5=="|D|":\n    response.write(\'\\n     <div id="res">D</div>\\n   \\n    \', escape=False)\nelse:\n    response.write(\'\\n         <div id="res">None</div>\\n    \', escape=False)\n    pass\nresponse.write(\'\\n</div>\\n\\n<div id="sco">\\n    <figure class="effect-oscar  wowload fadeInUp">\\n      \', escape=False)\nif score1==-2:\n    response.write(\'\\n    <div class="circle">Q1<br> \', escape=False)\n    response.write(score1)\n    response.write(\'</div>\\n      \', escape=False)\n    pass\nresponse.write(\'\\n      \', escape=False)\nif score1==10:\n    response.write(\'\\n        <div class="circle1">Q1<br>  \', escape=False)\n    response.write(score1)\n    response.write(\'</div>\\n        \', escape=False)\n    pass\nresponse.write(\'\\n        \', escape=False)\nif score1==0:\n    response.write(\'\\n        <div class="circle2"> Q1<br> \', escape=False)\n    response.write(score1)\n    response.write(\'</div>\\n        \', escape=False)\n    pass\nresponse.write(\'\\n    \\n    \', escape=False)\nif score2==-2:\n    response.write(\'\\n        <div class="circle">Q2<br>  \', escape=False)\n    response.write(score2)\n    response.write(\'</div>\\n      \', escape=False)\n    pass\nresponse.write(\'\\n      \', escape=False)\nif score2==10:\n    response.write(\'\\n        <div class="circle1">Q2<br>  \', escape=False)\n    response.write(score2)\n    response.write(\'</div>\\n        \', escape=False)\n    pass\nresponse.write(\'\\n        \', escape=False)\nif score2==0:\n    response.write(\'\\n        <div class="circle2">Q2<br>  \', escape=False)\n    response.write(score2)\n    response.write(\'</div>\\n        \', escape=False)\n    pass\nresponse.write(\'\\n   \', escape=False)\nif score3==-2:\n    response.write(\'\\n        <div class="circle">Q3<br>  \', escape=False)\n    response.write(score3)\n    response.write(\'</div>\\n      \', escape=False)\n    pass\nresponse.write(\'\\n      \', escape=False)\nif score3==10:\n    response.write(\'\\n        <div class="circle1">Q3<br>  \', escape=False)\n    response.write(score3)\n    response.write(\'</div>\\n        \', escape=False)\n    pass\nresponse.write(\'\\n        \', escape=False)\nif score3==0:\n    response.write(\'\\n        <div class="circle2">Q3<br>  \', escape=False)\n    response.write(score3)\n    response.write(\'</div>\\n        \', escape=False)\n    pass\nresponse.write(\'\\n    \\n    \', escape=False)\nif score4==-2:\n    response.write(\'\\n        <div class="circle">Q4<br>  \', escape=False)\n    response.write(score4)\n    response.write(\'</div>\\n      \', escape=False)\n    pass\nresponse.write(\'\\n      \', escape=False)\nif score4==10:\n    response.write(\'\\n        <div class="circle1">Q4<br>  \', escape=False)\n    response.write(score4)\n    response.write(\'</div>\\n        \', escape=False)\n    pass\nresponse.write(\'\\n        \', escape=False)\nif score4==0:\n    response.write(\'\\n        <div class="circle2">Q4<br>  \', escape=False)\n    response.write(score4)\n    response.write(\'</div>\\n        \', escape=False)\n    pass\nresponse.write(\'\\n    \\n    \', escape=False)\nif score5==-2:\n    response.write(\'\\n        <div class="circle">Q5<br>  \', escape=False)\n    response.write(score5)\n    response.write(\'</div>\\n      \', escape=False)\n    pass\nresponse.write(\'\\n      \', escape=False)\nif score5==10:\n    response.write(\'\\n        <div class="circle1">Q5<br>  \', escape=False)\n    response.write(score5)\n    response.write(\'</div>\\n        \', escape=False)\n    pass\nresponse.write(\'\\n        \', escape=False)\nif score5==0:\n    response.write(\'\\n        <div class="circle2">Q5<br>  \', escape=False)\n    response.write(score5)\n    response.write(\'</div>\\n        \', escape=False)\n    pass\nresponse.write(\'\\n    <div id="total">\\nTotal Score is \', escape=False)\nresponse.write(score)\nresponse.write(\'\\n    </div>\\n</p>\\n    </figure>\\n</div>\\n\\n<div id="can">\\n    <div id="hea">\\n<h1>\\n    Correct Answers\\n</h1>\\n    </div>\\n    \', escape=False)\nif ans.cans1=="|A|":\n    response.write(\'\\n     <div id="res">A</div>\\n   \\n     \', escape=False)\nelif ans.cans1=="|B|":\n    response.write(\'\\n     <div id="res">B</div>\\n\\n     \', escape=False)\nelif ans.cans1=="|C|":\n    response.write(\'\\n     <div id="res">C</div>\\n\\n     \', escape=False)\nelif ans.cans1=="|D|":\n    response.write(\'\\n     <div id="res">D</div>\\n        \', escape=False)\n    pass\nresponse.write(\'\\n    \\n    \', escape=False)\nif ans.cans2=="|A|":\n    response.write(\'\\n     <div id="res">A</div>\\n   \\n     \', escape=False)\nelif ans.cans2=="|B|":\n    response.write(\'\\n     <div id="res">B</div>\\n\\n     \', escape=False)\nelif ans.cans2=="|C|":\n    response.write(\'\\n     <div id="res">C</div>\\n\\n     \', escape=False)\nelif ans.cans2=="|D|":\n    response.write(\'\\n     <div id="res">D</div>\\n        \', escape=False)\n    pass\nresponse.write(\'\\n    \\n    \', escape=False)\nif ans.cans3=="|A|":\n    response.write(\'\\n     <div id="res">A</div>\\n   \\n     \', escape=False)\nelif ans.cans3=="|B|":\n    response.write(\'\\n     <div id="res">B</div>\\n\\n     \', escape=False)\nelif ans.cans3=="|C|":\n    response.write(\'\\n     <div id="res">C</div>\\n\\n     \', escape=False)\nelif ans.cans3=="|D|":\n    response.write(\'\\n     <div id="res">D</div>\\n        \', escape=False)\n    pass\nresponse.write(\'\\n    \\n    \', escape=False)\nif ans.cans4=="|A|":\n    response.write(\'\\n     <div id="res">A</div>\\n   \\n     \', escape=False)\nelif ans.cans4=="|B|":\n    response.write(\'\\n     <div id="res">B</div>\\n\\n     \', escape=False)\nelif ans.cans4=="|C|":\n    response.write(\'\\n     <div id="res">C</div>\\n\\n     \', escape=False)\nelif ans.cans4=="|D|":\n    response.write(\'\\n     <div id="res">D</div>\\n        \', escape=False)\n    pass\nresponse.write(\'\\n    \\n    \', escape=False)\nif ans.cans5=="|A|":\n    response.write(\'\\n     <div id="res">A</div>\\n   \\n     \', escape=False)\nelif ans.cans5=="|B|":\n    response.write(\'\\n     <div id="res">B</div>\\n\\n     \', escape=False)\nelif ans.cans5=="|C|":\n    response.write(\'\\n     <div id="res">C</div>\\n\\n     \', escape=False)\nelif ans.cans5=="|D|":\n    response.write(\'\\n     <div id="res">D</div>\\n        \', escape=False)\n    pass\nresponse.write(\'\\n</div>\\n<div id="feed">\\n    <div id="feedfo">\\n    \', escape=False)\nresponse.write(form)\nresponse.write(\'\\n    </div>\\n    <div class="round-button"><div class="round-button-circle"><a href="\', escape=False)\nresponse.write(URL(\'index\'))\nresponse.write(\'" class="round-button">Home</a></div></div>\\n</div>\\n</div>\\n\', escape=False)'
p7
sS'snapshot'
p8
(dp9
S'exception'
p10
(dp11
S'__hash__'
p12
S"<method-wrapper '__hash__' of exceptions.NameError object>"
p13
sS'__setattr__'
p14
S"<method-wrapper '__setattr__' of exceptions.NameError object>"
p15
sS'__reduce_ex__'
p16
S'<built-in method __reduce_ex__ of exceptions.NameError object>'
p17
sS'__getslice__'
p18
S"<method-wrapper '__getslice__' of exceptions.NameError object>"
p19
sS'__getitem__'
p20
S"<method-wrapper '__getitem__' of exceptions.NameError object>"
p21
sS'__setstate__'
p22
S'<built-in method __setstate__ of exceptions.NameError object>'
p23
sS'args'
p24
S'("name \'score1\' is not defined",)'
p25
sS'__reduce__'
p26
S'<built-in method __reduce__ of exceptions.NameError object>'
p27
sS'__str__'
p28
S"<method-wrapper '__str__' of exceptions.NameError object>"
p29
sS'__format__'
p30
S'<built-in method __format__ of exceptions.NameError object>'
p31
sS'__getattribute__'
p32
S"<method-wrapper '__getattribute__' of exceptions.NameError object>"
p33
sS'__class__'
p34
S"<type 'exceptions.NameError'>"
p35
sS'__unicode__'
p36
S'<built-in method __unicode__ of exceptions.NameError object>'
p37
sS'__delattr__'
p38
S"<method-wrapper '__delattr__' of exceptions.NameError object>"
p39
sS'__subclasshook__'
p40
S'<built-in method __subclasshook__ of type object>'
p41
sS'__repr__'
p42
S"<method-wrapper '__repr__' of exceptions.NameError object>"
p43
sS'__dict__'
p44
S'{}'
p45
sS'__sizeof__'
p46
S'<built-in method __sizeof__ of exceptions.NameError object>'
p47
sS'__doc__'
p48
S"'Name not found globally.'"
p49
sS'__init__'
p50
S"<method-wrapper '__init__' of exceptions.NameError object>"
p51
sS'__new__'
p52
S'<built-in method __new__ of type object>'
p53
ssS'evalue'
p54
S"name 'score1' is not defined"
p55
sS'request'
p56
cgluon.html
XML_unpickle
p57
(S's.]\x00\x00<div><table><tr><td style="font-weight:bold;vertical-align:top;">ajax</td><td style="vertical-align:top;">:</td><td><div>False</div></td></tr><tr><td style="font-weight:bold;vertical-align:top;">application</td><td style="vertical-align:top;">:</td><td><div>quiz</div></td></tr><tr><td style="font-weight:bold;vertical-align:top;">args</td><td style="vertical-align:top;">:</td><td><div><table><tr><td><div>Easy</div></td></tr><tr><td><div>A</div></td></tr><tr><td><div>Cricket</div></td></tr><tr><td><div>Sports</div></td></tr></table></div></td></tr><tr><td style="font-weight:bold;vertical-align:top;">cid</td><td style="vertical-align:top;">:</td><td><div>None</div></td></tr><tr><td style="font-weight:bold;vertical-align:top;">client</td><td style="vertical-align:top;">:</td><td><div>127.0.0.1</div></td></tr><tr><td style="font-weight:bold;vertical-align:top;">controller</td><td style="vertical-align:top;">:</td><td><div>default</div></td></tr><tr><td style="font-weight:bold;vertical-align:top;">cookies</td><td style="vertical-align:top;">:</td><td><div><table><tr><td style="font-weight:bold;vertical-align:top;">session_id_admin</td><td style="vertical-align:top;">:</td><td><div>127.0.0.1-2f656576-83d5-4637-9f08-91e6d42cd52c<table><tr><td style="font-weight:bold;vertical-align:top;">comment</td><td style="vertical-align:top;">:</td><td><div></div></td></tr><tr><td style="font-weight:bold;vertical-align:top;">domain</td><td style="vertical-align:top;">:</td><td><div></div></td></tr><tr><td style="font-weight:bold;vertical-align:top;">expires</td><td style="vertical-align:top;">:</td><td><div></div></td></tr><tr><td style="font-weight:bold;vertical-align:top;">httponly</td><td style="vertical-align:top;">:</td><td><div></div></td></tr><tr><td style="font-weight:bold;vertical-align:top;">max-age</td><td style="vertical-align:top;">:</td><td><div></div></td></tr><tr><td style="font-weight:bold;vertical-align:top;">path</td><td style="vertical-align:top;">:</td><td><div></div></td></tr><tr><td style="font-weight:bold;vertical-align:top;">secure</td><td style="vertical-align:top;">:</td><td><div></div></td></tr><tr><td style="font-weight:bold;vertical-align:top;">version</td><td style="vertical-align:top;">:</td><td><div></div></td></tr></table></div></td></tr><tr><td style="font-weight:bold;vertical-align:top;">session_id_quiz</td><td style="vertical-align:top;">:</td><td><div>127.0.0.1-c6da6d62-2806-4a37-bbec-1c66ee039ec7<table><tr><td style="font-weight:bold;vertical-align:top;">comment</td><td style="vertical-align:top;">:</td><td><div></div></td></tr><tr><td style="font-weight:bold;vertical-align:top;">domain</td><td style="vertical-align:top;">:</td><td><div></div></td></tr><tr><td style="font-weight:bold;vertical-align:top;">expires</td><td style="vertical-align:top;">:</td><td><div></div></td></tr><tr><td style="font-weight:bold;vertical-align:top;">httponly</td><td style="vertical-align:top;">:</td><td><div></div></td></tr><tr><td style="font-weight:bold;vertical-align:top;">max-age</td><td style="vertical-align:top;">:</td><td><div></div></td></tr><tr><td style="font-weight:bold;vertical-align:top;">path</td><td style="vertical-align:top;">:</td><td><div></div></td></tr><tr><td style="font-weight:bold;vertical-align:top;">secure</td><td style="vertical-align:top;">:</td><td><div></div></td></tr><tr><td style="font-weight:bold;vertical-align:top;">version</td><td style="vertical-align:top;">:</td><td><div></div></td></tr></table></div></td></tr><tr><td style="font-weight:bold;vertical-align:top;">session_id_welcome</td><td style="vertical-align:top;">:</td><td><div>127.0.0.1-cd61e23d-2f2b-47e2-a65c-dd3cee28add5<table><tr><td style="font-weight:bold;vertical-align:top;">comment</td><td style="vertical-align:top;">:</td><td><div></div></td></tr><tr><td style="font-weight:bold;vertical-align:top;">domain</td><td style="vertical-align:top;">:</td><td><div></div></td></tr><tr><td style="font-weight:bold;vertical-align:top;">expires</td><td style="vertical-align:top;">:</td><td><div></div></td></tr><tr><td style="font-weight:bold;vertical-align:top;">httponly</td><td style="vertical-align:top;">:</td><td><div></div></td></tr><tr><td style="font-weight:bold;vertical-align:top;">max-age</td><td style="vertical-align:top;">:</td><td><div></div></td></tr><tr><td style="font-weight:bold;vertical-align:top;">path</td><td style="vertical-align:top;">:</td><td><div></div></td></tr><tr><td style="font-weight:bold;vertical-align:top;">secure</td><td style="vertical-align:top;">:</td><td><div></div></td></tr><tr><td style="font-weight:bold;vertical-align:top;">version</td><td style="vertical-align:top;">:</td><td><div></div></td></tr></table></div></td></tr></table></div></td></tr><tr><td style="font-weight:bold;vertical-align:top;">env</td><td style="vertical-align:top;">:</td><td><div><table><tr><td style="font-weight:bold;vertical-align:top;">HTTP_ACCEPT</td><td style="vertical-align:top;">:</td><td><div>text/html,application/xhtml+xml,application/xml;q=0.9,*/*;q=0.8</div></td></tr><tr><td style="font-weight:bold;vertical-align:top;">HTTP_ACCEPT_ENCODING</td><td style="vertical-align:top;">:</td><td><div>gzip, deflate</div></td></tr><tr><td style="font-weight:bold;vertical-align:top;">HTTP_ACCEPT_LANGUAGE</td><td style="vertical-align:top;">:</td><td><div>en-US,en;q=0.5</div></td></tr><tr><td style="font-weight:bold;vertical-align:top;">HTTP_CACHE_CONTROL</td><td style="vertical-align:top;">:</td><td><div>max-age=0</div></td></tr><tr><td style="font-weight:bold;vertical-align:top;">HTTP_CONNECTION</td><td style="vertical-align:top;">:</td><td><div>keep-alive</div></td></tr><tr><td style="font-weight:bold;vertical-align:top;">HTTP_COOKIE</td><td style="vertical-align:top;">:</td><td><div>session_id_welcome=127.0.0.1-cd61e23d-2f2b-47e2-a65c-dd3cee28add5; session_id_admin=127.0.0.1-2f656576-83d5-4637-9f08-91e6d42cd52c; session_id_quiz=127.0.0.1-c6da6d62-2806-4a37-bbec-1c66ee039ec7</div></td></tr><tr><td style="font-weight:bold;vertical-align:top;">HTTP_HOST</td><td style="vertical-align:top;">:</td><td><div>127.0.0.1:8000</div></td></tr><tr><td style="font-weight:bold;vertical-align:top;">HTTP_REFERER</td><td style="vertical-align:top;">:</td><td><div>http://127.0.0.1:8000/quiz/default/question_display/Easy/A/Cricket/Sports/3/150</div></td></tr><tr><td style="font-weight:bold;vertical-align:top;">HTTP_USER_AGENT</td><td style="vertical-align:top;">:</td><td><div>Mozilla/5.0 (X11; Ubuntu; Linux x86_64; rv:46.0) Gecko/20100101 Firefox/46.0</div></td></tr><tr><td style="font-weight:bold;vertical-align:top;">PATH_INFO</td><td style="vertical-align:top;">:</td><td><div>/quiz/default/marksheet/Easy/A/Cricket/Sports</div></td></tr><tr><td style="font-weight:bold;vertical-align:top;">QUERY_STRING</td><td style="vertical-align:top;">:</td><td><div></div></td></tr><tr><td style="font-weight:bold;vertical-align:top;">REMOTE_ADDR</td><td style="vertical-align:top;">:</td><td><div>127.0.0.1</div></td></tr><tr><td style="font-weight:bold;vertical-align:top;">REMOTE_PORT</td><td style="vertical-align:top;">:</td><td><div>48050</div></td></tr><tr><td style="font-weight:bold;vertical-align:top;">REQUEST_METHOD</td><td style="vertical-align:top;">:</td><td><div>GET</div></td></tr><tr><td style="font-weight:bold;vertical-align:top;">SCRIPT_NAME</td><td style="vertical-align:top;">:</td><td><div></div></td></tr><tr><td style="font-weight:bold;vertical-align:top;">SERVER_NAME</td><td style="vertical-align:top;">:</td><td><div>Mohit-dellinspiron</div></td></tr><tr><td style="font-weight:bold;vertical-align:top;">SERVER_PORT</td><td style="vertical-align:top;">:</td><td><div>8000</div></td></tr><tr><td style="font-weight:bold;vertical-align:top;">SERVER_PROTOCOL</td><td style="vertical-align:top;">:</td><td><div>HTTP/1.1</div></td></tr><tr><td style="font-weight:bold;vertical-align:top;">SERVER_SOFTWARE</td><td style="vertical-align:top;">:</td><td><div>Rocket 1.2.6</div></td></tr><tr><td style="font-weight:bold;vertical-align:top;">app_folders</td><td style="vertical-align:top;">:</td><td><div>set([&#x27;/home/mohit/itws_project/web2py/applications/admin/&#x27;, &#x27;/home/mohit/itws_project/web2py/applications/welcome/&#x27;, &#x27;/home/mohit/itws_project/web2py/applications/quiz/&#x27;])</div></td></tr><tr><td style="font-weight:bold;vertical-align:top;">applications_parent</td><td style="vertical-align:top;">:</td><td><div>/home/mohit/itws_project/web2py</div></td></tr><tr><td style="font-weight:bold;vertical-align:top;">cmd_args</td><td style="vertical-align:top;">:</td><td><div><table></table></div></td></tr><tr><td style="font-weight:bold;vertical-align:top;">cmd_options</td><td style="vertical-align:top;">:</td><td><div>&lt;Values at 0x7f05cb94dbd8: {&#x27;verbose&#x27;: False, &#x27;ip&#x27;: &#x27;127.0.0.1&#x27;, &#x27;debuglevel&#x27;: 30, &#x27;with_scheduler&#x27;: False, &#x27;ips&#x27;: [&#x27;127.0.1.1&#x27;], &#x27;shutdown_timeout&#x27;: 5, &#x27;taskbar&#x27;: False, &#x27;with_coverage&#x27;: False, &#x27;scheduler_groups&#x27;: None, &#x27;port&#x27;: 8000, &#x27;maxthreads&#x27;: None, &#x27;softcron&#x27;: False, &#x27;server_name&#x27;: &#x27;Mohit-dellinspiron&#x27;, &#x27;bpython&#x27;: False, &#x27;nogui&#x27;: True, &#x27;pid_filename&#x27;: &#x27;httpserver.pid&#x27;, &#x27;print_errors&#x27;: False, &#x27;extcron&#x27;: False, &#x27;runcron&#x27;: False, &#x27;run_system_tests&#x27;: False, &#x27;test&#x27;: None, &#x27;folder&#x27;: &#x27;/home/mohit/itws_project/web2py&#x27;, &#x27;config&#x27;: &#x27;&#x27;, &#x27;minthreads&#x27;: None, &#x27;shell&#x27;: None, &#x27;run&#x27;: &#x27;&#x27;, &#x27;log_filename&#x27;: &#x27;httpserver.log&#x27;, &#x27;profiler_dir&#x27;: None, &#x27;args&#x27;: [&#x27;&#x27;], &#x27;socket_timeout&#x27;: 5, &#x27;ssl_ca_certificate&#x27;: None, &#x27;scheduler&#x27;: None, &#x27;interfaces&#x27;: None, &#x27;ssl_private_key&#x27;: &#x27;&#x27;, &#x27;gae&#x27;: None, &#x27;password&#x27;: &#x27;m&#x27;, &#x27;request_queue_size&#x27;: 5, &#x27;ssl_certificate&#x27;: &#x27;&#x27;, &#x27;cronjob&#x27;: False, &#x27;numthreads&#x27;: None, &#x27;quiet&#x27;: False, &#x27;import_models&#x27;: False, &#x27;timeout&#x27;: 10, &#x27;plain&#x27;: False, &#x27;nobanner&#x27;: False}&gt;</div></td></tr><tr><td style="font-weight:bold;vertical-align:top;">db_sessions</td><td style="vertical-align:top;">:</td><td><div>set([])</div></td></tr><tr><td style="font-weight:bold;vertical-align:top;">debugging</td><td style="vertical-align:top;">:</td><td><div>True</div></td></tr><tr><td style="font-weight:bold;vertical-align:top;">gluon_parent</td><td style="vertical-align:top;">:</td><td><div>/home/mohit/itws_project/web2py</div></td></tr><tr><td style="font-weight:bold;vertical-align:top;">http_accept</td><td style="vertical-align:top;">:</td><td><div>text/html,application/xhtml+xml,application/xml;q=0.9,*/*;q=0.8</div></td></tr><tr><td style="font-weight:bold;vertical-align:top;">http_accept_encoding</td><td style="vertical-align:top;">:</td><td><div>gzip, deflate</div></td></tr><tr><td style="font-weight:bold;vertical-align:top;">http_accept_language</td><td style="vertical-align:top;">:</td><td><div>en-US,en;q=0.5</div></td></tr><tr><td style="font-weight:bold;vertical-align:top;">http_cache_control</td><td style="vertical-align:top;">:</td><td><div>max-age=0</div></td></tr><tr><td style="font-weight:bold;vertical-align:top;">http_connection</td><td style="vertical-align:top;">:</td><td><div>keep-alive</div></td></tr><tr><td style="font-weight:bold;vertical-align:top;">http_cookie</td><td style="vertical-align:top;">:</td><td><div>session_id_welcome=127.0.0.1-cd61e23d-2f2b-47e2-a65c-dd3cee28add5; session_id_admin=127.0.0.1-2f656576-83d5-4637-9f08-91e6d42cd52c; session_id_quiz=127.0.0.1-c6da6d62-2806-4a37-bbec-1c66ee039ec7</div></td></tr><tr><td style="font-weight:bold;vertical-align:top;">http_host</td><td style="vertical-align:top;">:</td><td><div>127.0.0.1:8000</div></td></tr><tr><td style="font-weight:bold;vertical-align:top;">http_referer</td><td style="vertical-align:top;">:</td><td><div>http://127.0.0.1:8000/quiz/default/question_display/Easy/A/Cricket/Sports/3/150</div></td></tr><tr><td style="font-weight:bold;vertical-align:top;">http_user_agent</td><td style="vertical-align:top;">:</td><td><div>Mozilla/5.0 (X11; Ubuntu; Linux x86_64; rv:46.0) Gecko/20100101 Firefox/46.0</div></td></tr><tr><td style="font-weight:bold;vertical-align:top;">is_jython</td><td style="vertical-align:top;">:</td><td><div>False</div></td></tr><tr><td style="font-weight:bold;vertical-align:top;">is_pypy</td><td style="vertical-align:top;">:</td><td><div>False</div></td></tr><tr><td style="font-weight:bold;vertical-align:top;">is_source</td><td style="vertical-align:top;">:</td><td><div>True</div></td></tr><tr><td style="font-weight:bold;vertical-align:top;">local_hosts</td><td style="vertical-align:top;">:</td><td><div><table><tr><td><div>::1</div></td></tr><tr><td><div>127.0.1.1</div></td></tr><tr><td><div>::ffff:127.0.0.1</div></td></tr><tr><td><div>127.0.0.1</div></td></tr><tr><td><div>Mohit-dellinspiron</div></td></tr></table></div></td></tr><tr><td style="font-weight:bold;vertical-align:top;">path_info</td><td style="vertical-align:top;">:</td><td><div>/quiz/default/marksheet/Easy/A/Cricket/Sports</div></td></tr><tr><td style="font-weight:bold;vertical-align:top;">query_string</td><td style="vertical-align:top;">:</td><td><div></div></td></tr><tr><td style="font-weight:bold;vertical-align:top;">remote_addr</td><td style="vertical-align:top;">:</td><td><div>127.0.0.1</div></td></tr><tr><td style="font-weight:bold;vertical-align:top;">remote_port</td><td style="vertical-align:top;">:</td><td><div>48050</div></td></tr><tr><td style="font-weight:bold;vertical-align:top;">request_method</td><td style="vertical-align:top;">:</td><td><div>GET</div></td></tr><tr><td style="font-weight:bold;vertical-align:top;">request_uri</td><td style="vertical-align:top;">:</td><td><div>/quiz/default/marksheet/Easy/A/Cricket/Sports</div></td></tr><tr><td style="font-weight:bold;vertical-align:top;">script_name</td><td style="vertical-align:top;">:</td><td><div></div></td></tr><tr><td style="font-weight:bold;vertical-align:top;">server_name</td><td style="vertical-align:top;">:</td><td><div>Mohit-dellinspiron</div></td></tr><tr><td style="font-weight:bold;vertical-align:top;">server_port</td><td style="vertical-align:top;">:</td><td><div>8000</div></td></tr><tr><td style="font-weight:bold;vertical-align:top;">server_protocol</td><td style="vertical-align:top;">:</td><td><div>HTTP/1.1</div></td></tr><tr><td style="font-weight:bold;vertical-align:top;">server_software</td><td style="vertical-align:top;">:</td><td><div>Rocket 1.2.6</div></td></tr><tr><td style="font-weight:bold;vertical-align:top;">web2py_path</td><td style="vertical-align:top;">:</td><td><div>/home/mohit/itws_project/web2py</div></td></tr><tr><td style="font-weight:bold;vertical-align:top;">web2py_version</td><td style="vertical-align:top;">:</td><td><div>2.13.4-stable+timestamp.2015.12.26.04.59.39</div></td></tr><tr><td style="font-weight:bold;vertical-align:top;">wsgi.errors</td><td style="vertical-align:top;">:</td><td><div>&lt;open file &#x27;&lt;stderr&gt;&#x27;, mode &#x27;w&#x27; at 0x7f05cfdb71e0&gt;</div></td></tr><tr><td style="font-weight:bold;vertical-align:top;">wsgi.file_wrapper</td><td style="vertical-align:top;">:</td><td><div>&lt;class wsgiref.util.FileWrapper at 0x7f05cb982668&gt;</div></td></tr><tr><td style="font-weight:bold;vertical-align:top;">wsgi.input</td><td style="vertical-align:top;">:</td><td><div>&lt;socket._fileobject object at 0x7f05c80658d0&gt;</div></td></tr><tr><td style="font-weight:bold;vertical-align:top;">wsgi.multiprocess</td><td style="vertical-align:top;">:</td><td><div>False</div></td></tr><tr><td style="font-weight:bold;vertical-align:top;">wsgi.multithread</td><td style="vertical-align:top;">:</td><td><div>True</div></td></tr><tr><td style="font-weight:bold;vertical-align:top;">wsgi.run_once</td><td style="vertical-align:top;">:</td><td><div>False</div></td></tr><tr><td style="font-weight:bold;vertical-align:top;">wsgi.url_scheme</td><td style="vertical-align:top;">:</td><td><div>http</div></td></tr><tr><td style="font-weight:bold;vertical-align:top;">wsgi.version</td><td style="vertical-align:top;">:</td><td><div><table><tr><td><div>1</div></td></tr><tr><td><div>0</div></td></tr></table></div></td></tr><tr><td style="font-weight:bold;vertical-align:top;">wsgi_errors</td><td style="vertical-align:top;">:</td><td><div>&lt;open file &#x27;&lt;stderr&gt;&#x27;, mode &#x27;w&#x27; at 0x7f05cfdb71e0&gt;</div></td></tr><tr><td style="font-weight:bold;vertical-align:top;">wsgi_file_wrapper</td><td style="vertical-align:top;">:</td><td><div>&lt;class wsgiref.util.FileWrapper at 0x7f05cb982668&gt;</div></td></tr><tr><td style="font-weight:bold;vertical-align:top;">wsgi_input</td><td style="vertical-align:top;">:</td><td><div>&lt;socket._fileobject object at 0x7f05c80658d0&gt;</div></td></tr><tr><td style="font-weight:bold;vertical-align:top;">wsgi_multiprocess</td><td style="vertical-align:top;">:</td><td><div>False</div></td></tr><tr><td style="font-weight:bold;vertical-align:top;">wsgi_multithread</td><td style="vertical-align:top;">:</td><td><div>True</div></td></tr><tr><td style="font-weight:bold;vertical-align:top;">wsgi_run_once</td><td style="vertical-align:top;">:</td><td><div>False</div></td></tr><tr><td style="font-weight:bold;vertical-align:top;">wsgi_url_scheme</td><td style="vertical-align:top;">:</td><td><div>http</div></td></tr><tr><td style="font-weight:bold;vertical-align:top;">wsgi_version</td><td style="vertical-align:top;">:</td><td><div><table><tr><td><div>1</div></td></tr><tr><td><div>0</div></td></tr></table></div></td></tr></table></div></td></tr><tr><td style="font-weight:bold;vertical-align:top;">extension</td><td style="vertical-align:top;">:</td><td><div>html</div></td></tr><tr><td style="font-weight:bold;vertical-align:top;">folder</td><td style="vertical-align:top;">:</td><td><div>/home/mohit/itws_project/web2py/applications/quiz/</div></td></tr><tr><td style="font-weight:bold;vertical-align:top;">function</td><td style="vertical-align:top;">:</td><td><div>marksheet</div></td></tr><tr><td style="font-weight:bold;vertical-align:top;">global_settings</td><td style="vertical-align:top;">:</td><td><div><table><tr><td style="font-weight:bold;vertical-align:top;">app_folders</td><td style="vertical-align:top;">:</td><td><div>set([&#x27;/home/mohit/itws_project/web2py/applications/admin/&#x27;, &#x27;/home/mohit/itws_project/web2py/applications/welcome/&#x27;, &#x27;/home/mohit/itws_project/web2py/applications/quiz/&#x27;])</div></td></tr><tr><td style="font-weight:bold;vertical-align:top;">applications_parent</td><td style="vertical-align:top;">:</td><td><div>/home/mohit/itws_project/web2py</div></td></tr><tr><td style="font-weight:bold;vertical-align:top;">cmd_args</td><td style="vertical-align:top;">:</td><td><div><table></table></div></td></tr><tr><td style="font-weight:bold;vertical-align:top;">cmd_options</td><td style="vertical-align:top;">:</td><td><div>&lt;Values at 0x7f05cb94dbd8: {&#x27;verbose&#x27;: False, &#x27;ip&#x27;: &#x27;127.0.0.1&#x27;, &#x27;debuglevel&#x27;: 30, &#x27;with_scheduler&#x27;: False, &#x27;ips&#x27;: [&#x27;127.0.1.1&#x27;], &#x27;shutdown_timeout&#x27;: 5, &#x27;taskbar&#x27;: False, &#x27;with_coverage&#x27;: False, &#x27;scheduler_groups&#x27;: None, &#x27;port&#x27;: 8000, &#x27;maxthreads&#x27;: None, &#x27;softcron&#x27;: False, &#x27;server_name&#x27;: &#x27;Mohit-dellinspiron&#x27;, &#x27;bpython&#x27;: False, &#x27;nogui&#x27;: True, &#x27;pid_filename&#x27;: &#x27;httpserver.pid&#x27;, &#x27;print_errors&#x27;: False, &#x27;extcron&#x27;: False, &#x27;runcron&#x27;: False, &#x27;run_system_tests&#x27;: False, &#x27;test&#x27;: None, &#x27;folder&#x27;: &#x27;/home/mohit/itws_project/web2py&#x27;, &#x27;config&#x27;: &#x27;&#x27;, &#x27;minthreads&#x27;: None, &#x27;shell&#x27;: None, &#x27;run&#x27;: &#x27;&#x27;, &#x27;log_filename&#x27;: &#x27;httpserver.log&#x27;, &#x27;profiler_dir&#x27;: None, &#x27;args&#x27;: [&#x27;&#x27;], &#x27;socket_timeout&#x27;: 5, &#x27;ssl_ca_certificate&#x27;: None, &#x27;scheduler&#x27;: None, &#x27;interfaces&#x27;: None, &#x27;ssl_private_key&#x27;: &#x27;&#x27;, &#x27;gae&#x27;: None, &#x27;password&#x27;: &#x27;m&#x27;, &#x27;request_queue_size&#x27;: 5, &#x27;ssl_certificate&#x27;: &#x27;&#x27;, &#x27;cronjob&#x27;: False, &#x27;numthreads&#x27;: None, &#x27;quiet&#x27;: False, &#x27;import_models&#x27;: False, &#x27;timeout&#x27;: 10, &#x27;plain&#x27;: False, &#x27;nobanner&#x27;: False}&gt;</div></td></tr><tr><td style="font-weight:bold;vertical-align:top;">db_sessions</td><td style="vertical-align:top;">:</td><td><div>set([])</div></td></tr><tr><td style="font-weight:bold;vertical-align:top;">debugging</td><td style="vertical-align:top;">:</td><td><div>True</div></td></tr><tr><td style="font-weight:bold;vertical-align:top;">gluon_parent</td><td style="vertical-align:top;">:</td><td><div>/home/mohit/itws_project/web2py</div></td></tr><tr><td style="font-weight:bold;vertical-align:top;">is_jython</td><td style="vertical-align:top;">:</td><td><div>False</div></td></tr><tr><td style="font-weight:bold;vertical-align:top;">is_pypy</td><td style="vertical-align:top;">:</td><td><div>False</div></td></tr><tr><td style="font-weight:bold;vertical-align:top;">is_source</td><td style="vertical-align:top;">:</td><td><div>True</div></td></tr><tr><td style="font-weight:bold;vertical-align:top;">local_hosts</td><td style="vertical-align:top;">:</td><td><div><table><tr><td><div>::1</div></td></tr><tr><td><div>127.0.1.1</div></td></tr><tr><td><div>::ffff:127.0.0.1</div></td></tr><tr><td><div>127.0.0.1</div></td></tr><tr><td><div>Mohit-dellinspiron</div></td></tr></table></div></td></tr><tr><td style="font-weight:bold;vertical-align:top;">web2py_version</td><td style="vertical-align:top;">:</td><td><div>2.13.4-stable+timestamp.2015.12.26.04.59.39</div></td></tr></table></div></td></tr><tr><td style="font-weight:bold;vertical-align:top;">is_https</td><td style="vertical-align:top;">:</td><td><div>False</div></td></tr><tr><td style="font-weight:bold;vertical-align:top;">is_local</td><td style="vertical-align:top;">:</td><td><div>True</div></td></tr><tr><td style="font-weight:bold;vertical-align:top;">is_restful</td><td style="vertical-align:top;">:</td><td><div>False</div></td></tr><tr><td style="font-weight:bold;vertical-align:top;">is_scheduler</td><td style="vertical-align:top;">:</td><td><div>False</div></td></tr><tr><td style="font-weight:bold;vertical-align:top;">is_shell</td><td style="vertical-align:top;">:</td><td><div>False</div></td></tr><tr><td style="font-weight:bold;vertical-align:top;">now</td><td style="vertical-align:top;">:</td><td><div>datetime.datetime(2016, 5, 8, 19, 31, 5, 466642)</div></td></tr><tr><td style="font-weight:bold;vertical-align:top;">raw_args</td><td style="vertical-align:top;">:</td><td><div>Easy/A/Cricket/Sports</div></td></tr><tr><td style="font-weight:bold;vertical-align:top;">raw_extension</td><td style="vertical-align:top;">:</td><td><div>None</div></td></tr><tr><td style="font-weight:bold;vertical-align:top;">url</td><td style="vertical-align:top;">:</td><td><div>/quiz/default/marksheet/Easy/A/Cricket/Sports</div></td></tr><tr><td style="font-weight:bold;vertical-align:top;">utcnow</td><td style="vertical-align:top;">:</td><td><div>datetime.datetime(2016, 5, 8, 14, 1, 5, 466662)</div></td></tr><tr><td style="font-weight:bold;vertical-align:top;">wsgi</td><td style="vertical-align:top;">:</td><td><div>&lt;gluon.main.LazyWSGI object at 0x7f05cda00710&gt;</div></td></tr></table></div>'
tRp58
sS'frames'
p59
(lp60
(dp61
S'file'
p62
S'/home/mohit/itws_project/web2py/gluon/restricted.py'
p63
sS'dump'
p64
(dp65
S'environment'
p66
S"{'A': <class 'gluon.html.A'>, 'ANY_OF': <class 'gluon.validators.ANY_OF'>, 'ASSIGNJS': <function ASSIGNJS>, 'AppConfig': <function AppConfig>, 'Auth': <class 'gluon.tools.Auth'>, 'B': <class 'gluon.html.B'>, 'BEAUTIFY': <class 'gluon.html.BEAUTIFY'>, 'BODY': <class 'gluon.html.BODY'>, 'BR': <class 'gluon.html.BR'>, 'BUTTON': <class 'gluon.html.BUTTON'>, ...}"
p67
sS'ccode'
p68
S'<code object <module> at 0x7f05c83f79b0, file "/...tions/quiz/views/default/marksheet.html", line 1>'
p69
ssS'lnum'
p70
I227
sS'lines'
p71
(dp72
I224
S'            ccode = code'
p73
sI225
S'        else:'
p74
sI226
S'            ccode = compile2(code, layer)'
p75
sI227
S'        exec ccode in environment'
p76
sI228
S'    except HTTP:'
p77
sI229
S'        raise'
p78
sI230
S'    except RestrictedError:'
p79
sI231
S'        # do not encapsulate (obfuscate) the original RestrictedError'
p80
sI222
S'    try:'
p81
sI223
S'        if isinstance(code, types.CodeType):'
p82
ssS'call'
p83
S'(code=r"response.write(\'<style>\\n#yrf{\\n    width:40%;\\n.../a></div></div>\\n</div>\\n</div>\\n\', escape=False)", environment={\'A\': <class \'gluon.html.A\'>, \'ANY_OF\': <class \'gluon.validators.ANY_OF\'>, \'ASSIGNJS\': <function ASSIGNJS>, \'AppConfig\': <function AppConfig>, \'Auth\': <class \'gluon.tools.Auth\'>, \'B\': <class \'gluon.html.B\'>, \'BEAUTIFY\': <class \'gluon.html.BEAUTIFY\'>, \'BODY\': <class \'gluon.html.BODY\'>, \'BR\': <class \'gluon.html.BR\'>, \'BUTTON\': <class \'gluon.html.BUTTON\'>, ...}, layer=\'/home/mohit/itws_project/web2py/applications/quiz/views/default/marksheet.html\')'
p84
sS'func'
p85
S'restricted'
p86
sa(dp87
g62
S'/home/mohit/itws_project/web2py/applications/quiz/views/default/marksheet.html'
p88
sg64
(dp89
S'inline'
p90
S'undefined'
p91
sS'display'
p92
g91
sS'block'
p93
g91
ssg70
I66
sg71
(dp94
I64
S'    pass'
p95
sI65
S'response.write(\'\\n</div>\\n\\n<div id="sco">\\n    <figure class="effect-oscar  wowload fadeInUp">\\n      \', escape=False)'
p96
sI66
S'if score1==-2:'
p97
sI67
S'    response.write(\'\\n    <div class="circle">Q1<br> \', escape=False)'
p98
sI68
S'    response.write(score1)'
p99
sI69
S"    response.write('</div>\\n      ', escape=False)"
p100
sI70
S'    pass'
p101
sI71
S"response.write('\\n      ', escape=False)"
p102
sI72
S'if score1==10:'
p103
sI73
S'    response.write(\'\\n        <div class="circle1">Q1<br>  \', escape=False)'
p104
sI74
S'    response.write(score1)'
p105
sI75
S"    response.write('</div>\\n        ', escape=False)"
p106
sI76
S'    pass'
p107
sI57
S'    response.write(\'\\n     <div id="res">B</div>\\n    \\n     \', escape=False)'
p108
sI58
S'elif line.marked5=="|C|":'
p109
sI59
S'    response.write(\'\\n     <div id="res">C</div>\\n    \\n     \', escape=False)'
p110
sI60
S'elif line.marked5=="|D|":'
p111
sI61
S'    response.write(\'\\n     <div id="res">D</div>\\n   \\n    \', escape=False)'
p112
sI62
S'else:'
p113
sI63
S'    response.write(\'\\n         <div id="res">None</div>\\n    \', escape=False)'
p114
ssg83
S'()'
p115
sg85
S'<module>'
p116
sasS'pyver'
p117
S'Python 2.7.10: /usr/bin/python (prefix: /usr)'
p118
sS'session'
p119
g57
(S's\xb5\r\x00\x00<div><table><tr><td style="font-weight:bold;vertical-align:top;">auth</td><td style="vertical-align:top;">:</td><td><div><table><tr><td style="font-weight:bold;vertical-align:top;">expiration</td><td style="vertical-align:top;">:</td><td><div>3600</div></td></tr><tr><td style="font-weight:bold;vertical-align:top;">hmac_key</td><td style="vertical-align:top;">:</td><td><div>a8c7eeb8-07de-4e51-84df-e067006ebc32</div></td></tr><tr><td style="font-weight:bold;vertical-align:top;">last_visit</td><td style="vertical-align:top;">:</td><td><div>datetime.datetime(2016, 5, 8, 19, 27, 52, 154893)</div></td></tr><tr><td style="font-weight:bold;vertical-align:top;">remember_me</td><td style="vertical-align:top;">:</td><td><div>False</div></td></tr><tr><td style="font-weight:bold;vertical-align:top;">user</td><td style="vertical-align:top;">:</td><td><div><table><tr><td style="font-weight:bold;vertical-align:top;">DOB</td><td style="vertical-align:top;">:</td><td><div>datetime.date(1996, 11, 30)</div></td></tr><tr><td style="font-weight:bold;vertical-align:top;">Description</td><td style="vertical-align:top;">:</td><td><div>Fun-loving and in quest of knowledge</div></td></tr><tr><td style="font-weight:bold;vertical-align:top;">Gender</td><td style="vertical-align:top;">:</td><td><div>Male</div></td></tr><tr><td style="font-weight:bold;vertical-align:top;">Image</td><td style="vertical-align:top;">:</td><td><div>auth_user.Image.9353f12c2786441f.627261696e2e6a706567.jpeg</div></td></tr><tr><td style="font-weight:bold;vertical-align:top;">Interest</td><td style="vertical-align:top;">:</td><td><div>Quiz , Sports, Science</div></td></tr><tr><td style="font-weight:bold;vertical-align:top;">Profession</td><td style="vertical-align:top;">:</td><td><div>Student</div></td></tr><tr><td style="font-weight:bold;vertical-align:top;">email</td><td style="vertical-align:top;">:</td><td><div>mohit.chandra@research.iiit.ac.in</div></td></tr><tr><td style="font-weight:bold;vertical-align:top;">first_name</td><td style="vertical-align:top;">:</td><td><div>Mohit</div></td></tr><tr><td style="font-weight:bold;vertical-align:top;">id</td><td style="vertical-align:top;">:</td><td><div>7L</div></td></tr><tr><td style="font-weight:bold;vertical-align:top;">last_name</td><td style="vertical-align:top;">:</td><td><div>Chandra</div></td></tr><tr><td style="font-weight:bold;vertical-align:top;">registration_id</td><td style="vertical-align:top;">:</td><td><div></div></td></tr><tr><td style="font-weight:bold;vertical-align:top;">registration_key</td><td style="vertical-align:top;">:</td><td><div></div></td></tr><tr><td style="font-weight:bold;vertical-align:top;">reset_password_key</td><td style="vertical-align:top;">:</td><td><div></div></td></tr></table></div></td></tr><tr><td style="font-weight:bold;vertical-align:top;">user_groups</td><td style="vertical-align:top;">:</td><td><div><table><tr><td style="font-weight:bold;vertical-align:top;">7</td><td style="vertical-align:top;">:</td><td><div>user_7</div></td></tr></table></div></td></tr></table></div></td></tr><tr><td style="font-weight:bold;vertical-align:top;">flash</td><td style="vertical-align:top;">:</td><td><div>None</div></td></tr><tr><td style="font-weight:bold;vertical-align:top;">last_orderby</td><td style="vertical-align:top;">:</td><td><div>None</div></td></tr><tr><td style="font-weight:bold;vertical-align:top;">last_query</td><td style="vertical-align:top;">:</td><td><div>db.main_table.id&gt;0</div></td></tr></table></div>'
tRp120
sS'etype'
p121
S"<type 'exceptions.NameError'>"
p122
sS'date'
p123
S'Sun May  8 19:31:05 2016'
p124
sS'response'
p125
g57
(S'sl?\x00\x00<div><table><tr><td style="font-weight:bold;vertical-align:top;">body</td><td style="vertical-align:top;">:</td><td><div>&lt;cStringIO.StringO object at 0x7f05b04aa5e0&gt;</div></td></tr><tr><td style="font-weight:bold;vertical-align:top;">cookies</td><td style="vertical-align:top;">:</td><td><div><table><tr><td style="font-weight:bold;vertical-align:top;">session_id_quiz</td><td style="vertical-align:top;">:</td><td><div>127.0.0.1-c6da6d62-2806-4a37-bbec-1c66ee039ec7<table><tr><td style="font-weight:bold;vertical-align:top;">comment</td><td style="vertical-align:top;">:</td><td><div></div></td></tr><tr><td style="font-weight:bold;vertical-align:top;">domain</td><td style="vertical-align:top;">:</td><td><div></div></td></tr><tr><td style="font-weight:bold;vertical-align:top;">expires</td><td style="vertical-align:top;">:</td><td><div></div></td></tr><tr><td style="font-weight:bold;vertical-align:top;">httponly</td><td style="vertical-align:top;">:</td><td><div></div></td></tr><tr><td style="font-weight:bold;vertical-align:top;">max-age</td><td style="vertical-align:top;">:</td><td><div></div></td></tr><tr><td style="font-weight:bold;vertical-align:top;">path</td><td style="vertical-align:top;">:</td><td><div>/</div></td></tr><tr><td style="font-weight:bold;vertical-align:top;">secure</td><td style="vertical-align:top;">:</td><td><div></div></td></tr><tr><td style="font-weight:bold;vertical-align:top;">version</td><td style="vertical-align:top;">:</td><td><div></div></td></tr></table></div></td></tr></table></div></td></tr><tr><td style="font-weight:bold;vertical-align:top;">delimiters</td><td style="vertical-align:top;">:</td><td><div><table><tr><td><div>{{</div></td></tr><tr><td><div>}}</div></td></tr></table></div></td></tr><tr><td style="font-weight:bold;vertical-align:top;">files</td><td style="vertical-align:top;">:</td><td><div><table></table></div></td></tr><tr><td style="font-weight:bold;vertical-align:top;">flash</td><td style="vertical-align:top;">:</td><td><div></div></td></tr><tr><td style="font-weight:bold;vertical-align:top;">form_label_separator</td><td style="vertical-align:top;">:</td><td><div></div></td></tr><tr><td style="font-weight:bold;vertical-align:top;">formstyle</td><td style="vertical-align:top;">:</td><td><div>bootstrap3_inline</div></td></tr><tr><td style="font-weight:bold;vertical-align:top;">generic_patterns</td><td style="vertical-align:top;">:</td><td><div><table><tr><td><div>*</div></td></tr></table></div></td></tr><tr><td style="font-weight:bold;vertical-align:top;">google_analytics_id</td><td style="vertical-align:top;">:</td><td><div>None</div></td></tr><tr><td style="font-weight:bold;vertical-align:top;">headers</td><td style="vertical-align:top;">:</td><td><div><table><tr><td style="font-weight:bold;vertical-align:top;">X-Powered-By</td><td style="vertical-align:top;">:</td><td><div>web2py</div></td></tr></table></div></td></tr><tr><td style="font-weight:bold;vertical-align:top;">logo</td><td style="vertical-align:top;">:</td><td><div><a class="navbar-brand" href="http://www.web2py.com/" id="web2py-logo"><b>web<span>2</span>py</b>&trade;&nbsp;</a></div></td></tr><tr><td style="font-weight:bold;vertical-align:top;">menu</td><td style="vertical-align:top;">:</td><td><div><table><tr><td><div><table><tr><td><div>Home</div></td></tr><tr><td><div>False</div></td></tr><tr><td><div>/quiz/default/index</div></td></tr><tr><td><div><table></table></div></td></tr></table></div></td></tr><tr><td><div><table><tr><td><div>My Sites</div></td></tr><tr><td><div>False</div></td></tr><tr><td><div>/admin/default/site</div></td></tr></table></div></td></tr><tr><td><div><table><tr><td><div>This App</div></td></tr><tr><td><div>False</div></td></tr><tr><td><div>#</div></td></tr><tr><td><div><table><tr><td><div><table><tr><td><div>Design</div></td></tr><tr><td><div>False</div></td></tr><tr><td><div>/admin/default/design/quiz</div></td></tr></table></div></td></tr><tr><td><div><li class="divider"></li></div></td></tr><tr><td><div><table><tr><td><div>Controller</div></td></tr><tr><td><div>False</div></td></tr><tr><td><div>/admin/default/edit/quiz/controllers/default.py</div></td></tr></table></div></td></tr><tr><td><div><table><tr><td><div>View</div></td></tr><tr><td><div>False</div></td></tr><tr><td><div>/admin/default/edit/quiz/views/default/marksheet.html</div></td></tr></table></div></td></tr><tr><td><div><table><tr><td><div>DB Model</div></td></tr><tr><td><div>False</div></td></tr><tr><td><div>/admin/default/edit/quiz/models/db.py</div></td></tr></table></div></td></tr><tr><td><div><table><tr><td><div>Menu Model</div></td></tr><tr><td><div>False</div></td></tr><tr><td><div>/admin/default/edit/quiz/models/menu.py</div></td></tr></table></div></td></tr><tr><td><div><table><tr><td><div>Config.ini</div></td></tr><tr><td><div>False</div></td></tr><tr><td><div>/admin/default/edit/quiz/private/appconfig.ini</div></td></tr></table></div></td></tr><tr><td><div><table><tr><td><div>Layout</div></td></tr><tr><td><div>False</div></td></tr><tr><td><div>/admin/default/edit/quiz/views/layout.html</div></td></tr></table></div></td></tr><tr><td><div><table><tr><td><div>Stylesheet</div></td></tr><tr><td><div>False</div></td></tr><tr><td><div>/admin/default/edit/quiz/static/css/web2py-bootstrap3.css</div></td></tr></table></div></td></tr><tr><td><div><table><tr><td><div>Database</div></td></tr><tr><td><div>False</div></td></tr><tr><td><div>/quiz/appadmin/index</div></td></tr></table></div></td></tr><tr><td><div><table><tr><td><div>Errors</div></td></tr><tr><td><div>False</div></td></tr><tr><td><div>/admin/default/errors/quiz</div></td></tr></table></div></td></tr><tr><td><div><table><tr><td><div>About</div></td></tr><tr><td><div>False</div></td></tr><tr><td><div>/admin/default/about/quiz</div></td></tr></table></div></td></tr></table></div></td></tr></table></div></td></tr><tr><td><div><table><tr><td><div>web2py.com</div></td></tr><tr><td><div>False</div></td></tr><tr><td><div>#</div></td></tr><tr><td><div><table><tr><td><div><table><tr><td><div>Download</div></td></tr><tr><td><div>False</div></td></tr><tr><td><div>http://www.web2py.com/examples/default/download</div></td></tr></table></div></td></tr><tr><td><div><table><tr><td><div>Support</div></td></tr><tr><td><div>False</div></td></tr><tr><td><div>http://www.web2py.com/examples/default/support</div></td></tr></table></div></td></tr><tr><td><div><table><tr><td><div>Demo</div></td></tr><tr><td><div>False</div></td></tr><tr><td><div>http://web2py.com/demo_admin</div></td></tr></table></div></td></tr><tr><td><div><table><tr><td><div>Quick Examples</div></td></tr><tr><td><div>False</div></td></tr><tr><td><div>http://web2py.com/examples/default/examples</div></td></tr></table></div></td></tr><tr><td><div><table><tr><td><div>FAQ</div></td></tr><tr><td><div>False</div></td></tr><tr><td><div>http://web2py.com/AlterEgo</div></td></tr></table></div></td></tr><tr><td><div><table><tr><td><div>Videos</div></td></tr><tr><td><div>False</div></td></tr><tr><td><div>http://www.web2py.com/examples/default/videos/</div></td></tr></table></div></td></tr><tr><td><div><table><tr><td><div>Free Applications</div></td></tr><tr><td><div>False</div></td></tr><tr><td><div>http://web2py.com/appliances</div></td></tr></table></div></td></tr><tr><td><div><table><tr><td><div>Plugins</div></td></tr><tr><td><div>False</div></td></tr><tr><td><div>http://web2py.com/plugins</div></td></tr></table></div></td></tr><tr><td><div><table><tr><td><div>Recipes</div></td></tr><tr><td><div>False</div></td></tr><tr><td><div>http://web2pyslices.com/</div></td></tr></table></div></td></tr></table></div></td></tr></table></div></td></tr><tr><td><div><table><tr><td><div>Documentation</div></td></tr><tr><td><div>False</div></td></tr><tr><td><div>#</div></td></tr><tr><td><div><table><tr><td><div><table><tr><td><div>Online book</div></td></tr><tr><td><div>False</div></td></tr><tr><td><div>http://www.web2py.com/book</div></td></tr></table></div></td></tr><tr><td><div><li class="divider"></li></div></td></tr><tr><td><div><table><tr><td><div>Preface</div></td></tr><tr><td><div>False</div></td></tr><tr><td><div>http://www.web2py.com/book/default/chapter/00</div></td></tr></table></div></td></tr><tr><td><div><table><tr><td><div>Introduction</div></td></tr><tr><td><div>False</div></td></tr><tr><td><div>http://www.web2py.com/book/default/chapter/01</div></td></tr></table></div></td></tr><tr><td><div><table><tr><td><div>Python</div></td></tr><tr><td><div>False</div></td></tr><tr><td><div>http://www.web2py.com/book/default/chapter/02</div></td></tr></table></div></td></tr><tr><td><div><table><tr><td><div>Overview</div></td></tr><tr><td><div>False</div></td></tr><tr><td><div>http://www.web2py.com/book/default/chapter/03</div></td></tr></table></div></td></tr><tr><td><div><table><tr><td><div>The Core</div></td></tr><tr><td><div>False</div></td></tr><tr><td><div>http://www.web2py.com/book/default/chapter/04</div></td></tr></table></div></td></tr><tr><td><div><table><tr><td><div>The Views</div></td></tr><tr><td><div>False</div></td></tr><tr><td><div>http://www.web2py.com/book/default/chapter/05</div></td></tr></table></div></td></tr><tr><td><div><table><tr><td><div>Database</div></td></tr><tr><td><div>False</div></td></tr><tr><td><div>http://www.web2py.com/book/default/chapter/06</div></td></tr></table></div></td></tr><tr><td><div><table><tr><td><div>Forms and Validators</div></td></tr><tr><td><div>False</div></td></tr><tr><td><div>http://www.web2py.com/book/default/chapter/07</div></td></tr></table></div></td></tr><tr><td><div><table><tr><td><div>Email and SMS</div></td></tr><tr><td><div>False</div></td></tr><tr><td><div>http://www.web2py.com/book/default/chapter/08</div></td></tr></table></div></td></tr><tr><td><div><table><tr><td><div>Access Control</div></td></tr><tr><td><div>False</div></td></tr><tr><td><div>http://www.web2py.com/book/default/chapter/09</div></td></tr></table></div></td></tr><tr><td><div><table><tr><td><div>Services</div></td></tr><tr><td><div>False</div></td></tr><tr><td><div>http://www.web2py.com/book/default/chapter/10</div></td></tr></table></div></td></tr><tr><td><div><table><tr><td><div>Ajax Recipes</div></td></tr><tr><td><div>False</div></td></tr><tr><td><div>http://www.web2py.com/book/default/chapter/11</div></td></tr></table></div></td></tr><tr><td><div><table><tr><td><div>Components and Plugins</div></td></tr><tr><td><div>False</div></td></tr><tr><td><div>http://www.web2py.com/book/default/chapter/12</div></td></tr></table></div></td></tr><tr><td><div><table><tr><td><div>Deployment Recipes</div></td></tr><tr><td><div>False</div></td></tr><tr><td><div>http://www.web2py.com/book/default/chapter/13</div></td></tr></table></div></td></tr><tr><td><div><table><tr><td><div>Other Recipes</div></td></tr><tr><td><div>False</div></td></tr><tr><td><div>http://www.web2py.com/book/default/chapter/14</div></td></tr></table></div></td></tr><tr><td><div><table><tr><td><div>Helping web2py</div></td></tr><tr><td><div>False</div></td></tr><tr><td><div>http://www.web2py.com/book/default/chapter/15</div></td></tr></table></div></td></tr><tr><td><div><table><tr><td><div>Buy web2py\'s book</div></td></tr><tr><td><div>False</div></td></tr><tr><td><div>http://stores.lulu.com/web2py</div></td></tr></table></div></td></tr></table></div></td></tr></table></div></td></tr><tr><td><div><table><tr><td><div>Community</div></td></tr><tr><td><div>False</div></td></tr><tr><td><div>None</div></td></tr><tr><td><div><table><tr><td><div><table><tr><td><div>Groups</div></td></tr><tr><td><div>False</div></td></tr><tr><td><div>http://www.web2py.com/examples/default/usergroups</div></td></tr></table></div></td></tr><tr><td><div><table><tr><td><div>Twitter</div></td></tr><tr><td><div>False</div></td></tr><tr><td><div>http://twitter.com/web2py</div></td></tr></table></div></td></tr><tr><td><div><table><tr><td><div>Live Chat</div></td></tr><tr><td><div>False</div></td></tr><tr><td><div>http://webchat.freenode.net/?channels=web2py</div></td></tr></table></div></td></tr></table></div></td></tr></table></div></td></tr></table></div></td></tr><tr><td style="font-weight:bold;vertical-align:top;">meta</td><td style="vertical-align:top;">:</td><td><div><table><tr><td style="font-weight:bold;vertical-align:top;">author</td><td style="vertical-align:top;">:</td><td><div>Your Name &lt;you@example.com&gt;</div></td></tr><tr><td style="font-weight:bold;vertical-align:top;">description</td><td style="vertical-align:top;">:</td><td><div>a cool new app</div></td></tr><tr><td style="font-weight:bold;vertical-align:top;">generator</td><td style="vertical-align:top;">:</td><td><div>Web2py Web Framework</div></td></tr><tr><td style="font-weight:bold;vertical-align:top;">keywords</td><td style="vertical-align:top;">:</td><td><div>web2py, python, framework</div></td></tr></table></div></td></tr><tr><td style="font-weight:bold;vertical-align:top;">models_to_run</td><td style="vertical-align:top;">:</td><td><div><table><tr><td><div>^\\w+\\.py$</div></td></tr><tr><td><div>^default/\\w+\\.py$</div></td></tr><tr><td><div>^default/marksheet/\\w+\\.py$</div></td></tr></table></div></td></tr><tr><td style="font-weight:bold;vertical-align:top;">postprocessing</td><td style="vertical-align:top;">:</td><td><div><table></table></div></td></tr><tr><td style="font-weight:bold;vertical-align:top;">session_client</td><td style="vertical-align:top;">:</td><td><div>127.0.0.1</div></td></tr><tr><td style="font-weight:bold;vertical-align:top;">session_cookie_compression_level</td><td style="vertical-align:top;">:</td><td><div>None</div></td></tr><tr><td style="font-weight:bold;vertical-align:top;">session_cookie_expires</td><td style="vertical-align:top;">:</td><td><div>None</div></td></tr><tr><td style="font-weight:bold;vertical-align:top;">session_cookie_key</td><td style="vertical-align:top;">:</td><td><div>None</div></td></tr><tr><td style="font-weight:bold;vertical-align:top;">session_data_name</td><td style="vertical-align:top;">:</td><td><div>session_data_quiz</div></td></tr><tr><td style="font-weight:bold;vertical-align:top;">session_file</td><td style="vertical-align:top;">:</td><td><div>&lt;open file &#x27;/home/mohit/itws_project/web2py/applications/quiz/sessions/0f1/0f1/127.0.0.1-c6da6d62-2806-4a37-bbec-1c66ee039ec7&#x27;, mode &#x27;rb+&#x27; at 0x7f05b02cc930&gt;</div></td></tr><tr><td style="font-weight:bold;vertical-align:top;">session_filename</td><td style="vertical-align:top;">:</td><td><div>/home/mohit/itws_project/web2py/applications/quiz/sessions/127.0.0.1-c6da6d62-2806-4a37-bbec-1c66ee039ec7</div></td></tr><tr><td style="font-weight:bold;vertical-align:top;">session_hash</td><td style="vertical-align:top;">:</td><td><div>25a1b40b2426c05ea39e0853bd1a625c</div></td></tr><tr><td style="font-weight:bold;vertical-align:top;">session_id</td><td style="vertical-align:top;">:</td><td><div>127.0.0.1-c6da6d62-2806-4a37-bbec-1c66ee039ec7</div></td></tr><tr><td style="font-weight:bold;vertical-align:top;">session_id_name</td><td style="vertical-align:top;">:</td><td><div>session_id_quiz</div></td></tr><tr><td style="font-weight:bold;vertical-align:top;">session_locked</td><td style="vertical-align:top;">:</td><td><div>True</div></td></tr><tr><td style="font-weight:bold;vertical-align:top;">session_masterapp</td><td style="vertical-align:top;">:</td><td><div>quiz</div></td></tr><tr><td style="font-weight:bold;vertical-align:top;">session_new</td><td style="vertical-align:top;">:</td><td><div>False</div></td></tr><tr><td style="font-weight:bold;vertical-align:top;">session_storage_type</td><td style="vertical-align:top;">:</td><td><div>file</div></td></tr><tr><td style="font-weight:bold;vertical-align:top;">status</td><td style="vertical-align:top;">:</td><td><div>200</div></td></tr><tr><td style="font-weight:bold;vertical-align:top;">subtitle</td><td style="vertical-align:top;">:</td><td><div></div></td></tr><tr><td style="font-weight:bold;vertical-align:top;">title</td><td style="vertical-align:top;">:</td><td><div>Quiz</div></td></tr><tr><td style="font-weight:bold;vertical-align:top;">view</td><td style="vertical-align:top;">:</td><td><div>default/marksheet.html</div></td></tr></table></div>'
tRp126
sS'locals'
p127
(dp128
S'Service'
p129
S"<class 'gluon.tools.Service'>"
p130
sS'OBJECT'
p131
S"<class 'gluon.html.OBJECT'>"
p132
sS'SQLDB'
p133
S"<class 'pydal.base.DAL'>"
p134
sg119
S"<Storage {'_formkey[ans2/create]': ['37100572-7d...gin]': ['dc5683ca-ee65-4be4-94db-cb4d3cff67fa']}>"
p135
sS'LINK'
p136
S"<class 'gluon.html.LINK'>"
p137
sS'BR'
p138
S"<class 'gluon.html.BR'>"
p139
sS'local_import'
p140
S'<function <lambda>>'
p141
sS'OPTGROUP'
p142
S"<class 'gluon.html.OPTGROUP'>"
p143
sS'__package__'
p144
S'None'
p145
sS'row'
p146
S"<Row {'Category': 'Sports', 'Sub_Category': 'Cri...idans = 13)>, 'cans': <Set (cans.qidcans = 13)>}>"
p147
sS'PRE'
p148
S"<class 'gluon.html.PRE'>"
p149
sS'IS_INT_IN_RANGE'
p150
S"<class 'gluon.validators.IS_INT_IN_RANGE'>"
p151
sS'IS_LOWER'
p152
S"<class 'gluon.validators.IS_LOWER'>"
p153
sS'IS_STRONG'
p154
S"<class 'gluon.validators.IS_STRONG'>"
p155
sS'cache'
p156
S'<gluon.cache.Cache object>'
p157
sS'IS_IN_DB'
p158
S"<class 'gluon.validators.IS_IN_DB'>"
p159
sS'TAG'
p160
S'<gluon.html.__TAG__ object>'
p161
sS'SQLField'
p162
S"<class 'pydal.objects.Field'>"
p163
sS'mail'
p164
S'<gluon.tools.Mail object>'
p165
sS'BODY'
p166
S"<class 'gluon.html.BODY'>"
p167
sS'IS_DATE_IN_RANGE'
p168
S"<class 'gluon.validators.IS_DATE_IN_RANGE'>"
p169
sS'IFRAME'
p170
S"<class 'gluon.html.IFRAME'>"
p171
sS'URL'
p172
S'<function URL>'
p173
sS'__file__'
p174
S"'/home/mohit/itws_project/web2py/applications/quiz/views/default/marksheet.html'"
p175
sS'db'
p176
S'<DAL uri="sqlite://storage.sqlite">'
p177
sS'auth'
p178
S'<gluon.tools.Auth object>'
p179
sS'P'
S"<class 'gluon.html.P'>"
p180
sS'TFOOT'
p181
S"<class 'gluon.html.TFOOT'>"
p182
sS'XHTML'
p183
S"<class 'gluon.html.XHTML'>"
p184
sS'ON'
p185
S'True'
p186
sS'OL'
p187
S"<class 'gluon.html.OL'>"
p188
sS'TEXTAREA'
p189
S"<class 'gluon.html.TEXTAREA'>"
p190
sS'MENU'
p191
S"<class 'gluon.html.MENU'>"
p192
sS'IS_IMAGE'
p193
S"<class 'gluon.validators.IS_IMAGE'>"
p194
sS'EM'
p195
S"<class 'gluon.html.EM'>"
p196
sS'CODE'
p197
S"<class 'gluon.html.CODE'>"
p198
sS'HTTP'
p199
S"<class 'gluon.http.HTTP'>"
p200
sS'HR'
p201
S"<class 'gluon.html.HR'>"
p202
sS'IS_DATETIME'
p203
S"<class 'gluon.validators.IS_DATETIME'>"
p204
sS'STYLE'
p205
S"<class 'gluon.html.STYLE'>"
p206
sS'LABEL'
p207
S"<class 'gluon.html.LABEL'>"
p208
sS'CLEANUP'
p209
S"<class 'gluon.validators.CLEANUP'>"
p210
sS'thisusr'
p211
S'<Rows (0)>'
p212
sS'plugins'
p213
S'<gluon.tools.PluginManager object>'
p214
sS'IS_DATETIME_IN_RANGE'
p215
S"<class 'gluon.validators.IS_DATETIME_IN_RANGE'>"
p216
sS'INPUT'
p217
S"<class 'gluon.html.INPUT'>"
p218
sS'SELECT'
p219
S"<class 'gluon.html.SELECT'>"
p220
sS'thisid'
p221
S'13L'
p222
sS'Auth'
p223
S"<class 'gluon.tools.Auth'>"
p224
sS'DEVELOPMENT_MENU'
p225
g186
sS'__builtins__'
p226
S"{'ArithmeticError': <type 'exceptions.ArithmeticError'>, 'AssertionError': <type 'exceptions.AssertionError'>, 'AttributeError': <type 'exceptions.AttributeError'>, 'BaseException': <type 'exceptions.BaseException'>, 'BufferError': <type 'exceptions.BufferError'>, 'BytesWarning': <type 'exceptions.BytesWarning'>, 'DeprecationWarning': <type 'exceptions.DeprecationWarning'>, 'EOFError': <type 'exceptions.EOFError'>, 'Ellipsis': Ellipsis, 'EnvironmentError': <type 'exceptions.EnvironmentError'>, ...}"
p227
sS'HTML'
p228
S"<class 'gluon.html.HTML'>"
p229
sS'SQLFORM'
p230
S"<class 'gluon.sqlhtml.SQLFORM'>"
p231
sS'LOAD'
p232
S'<function LOAD>'
p233
sS'redirect'
p234
S'<function redirect>'
p235
sS'FIELDSET'
p236
S"<class 'gluon.html.FIELDSET'>"
p237
sS'IS_EQUAL_TO'
p238
S"<class 'gluon.validators.IS_EQUAL_TO'>"
p239
sS'answers'
p240
S'<Rows (1)>'
p241
sS'embed64'
p242
S'<function embed64>'
p243
sS'COL'
p244
S"<class 'gluon.html.COL'>"
p245
sS'IS_LIST_OF'
p246
S"<class 'gluon.validators.IS_LIST_OF'>"
p247
sS'updt1'
p248
S"['C']"
p249
sS'updt2'
p250
S"['B']"
p251
sS'updt3'
p252
S"['A']"
p253
sS'updt4'
p254
S"['D']"
p255
sS'updt5'
p256
S"['A']"
p257
sS'_'
S'<function _>'
p258
sS'myconf'
p259
S"{'forms': {'formstyle': 'bootstrap3_inline', 'se...'you@gmail.com', 'server': 'smtp.gmail.com:587'}}"
p260
sS'H2'
p261
S"<class 'gluon.html.H2'>"
p262
sS'H3'
p263
S"<class 'gluon.html.H3'>"
p264
sS'AppConfig'
p265
S'<function AppConfig>'
p266
sS'H1'
p267
S"<class 'gluon.html.H1'>"
p268
sS'H6'
p269
S"<class 'gluon.html.H6'>"
p270
sS'H4'
p271
S"<class 'gluon.html.H4'>"
p272
sS'H5'
p273
S"<class 'gluon.html.H5'>"
p274
sS'UL'
p275
S"<class 'gluon.html.UL'>"
p276
sS'IS_UPPER'
p277
S"<class 'gluon.validators.IS_UPPER'>"
p278
sS'IS_LIST_OF_EMAILS'
p279
S"<class 'gluon.validators.IS_LIST_OF_EMAILS'>"
p280
sS'xmlescape'
p281
S'<function xmlescape>'
p282
sS'IS_TIME'
p283
S"<class 'gluon.validators.IS_TIME'>"
p284
sS'rows1'
p285
S'<Rows (5)>'
p286
sS'OPTION'
p287
S"<class 'gluon.html.OPTION'>"
p288
sS'TITLE'
p289
S"<class 'gluon.html.TITLE'>"
p290
sS'CRYPT'
p291
S"<class 'gluon.validators.CRYPT'>"
p292
sS'IS_EMPTY_OR'
p293
S"<class 'gluon.validators.IS_EMPTY_OR'>"
p294
sS'MARKMIN'
p295
S"<class 'gluon.html.MARKMIN'>"
p296
sS'__name__'
p297
S"'__restricted__'"
p298
sS'STRONG'
p299
S"<class 'gluon.html.STRONG'>"
p300
sS'EMBED'
p301
S"<class 'gluon.html.EMBED'>"
p302
sS'rows'
p303
S'<Rows (1)>'
p304
sS'score'
p305
S'24'
p306
sS'service'
p307
S'<gluon.tools.Service object>'
p308
sS'SCRIPT'
p309
S"<class 'gluon.html.SCRIPT'>"
p310
sS'TABLE'
p311
S"<class 'gluon.html.TABLE'>"
p312
sS'THEAD'
p313
S"<class 'gluon.html.THEAD'>"
p314
sS'IS_IPV4'
p315
S"<class 'gluon.validators.IS_IPV4'>"
p316
sS'IS_LENGTH'
p317
S"<class 'gluon.validators.IS_LENGTH'>"
p318
sS'IS_IPV6'
p319
S"<class 'gluon.validators.IS_IPV6'>"
p320
sS'XML'
p321
S"<class 'gluon.html.XML'>"
p322
sS'B'
S"<class 'gluon.html.B'>"
p323
sS'IMG'
p324
S"<class 'gluon.html.IMG'>"
p325
sS'SQLTABLE'
p326
S"<class 'gluon.sqlhtml.SQLTABLE'>"
p327
sS'IS_MATCH'
p328
S"<class 'gluon.validators.IS_MATCH'>"
p329
sS'IS_ALPHANUMERIC'
p330
S"<class 'gluon.validators.IS_ALPHANUMERIC'>"
p331
sS'line'
p332
S"<Row {'yourid': 7L, 'marked5': '|A|', 'marked4':...rked1': '|C|', 'questionsetid': 13L, 'id': 151L}>"
p333
sS'row1'
p334
S"<Row {'modified_by': 7L, 'is_active': True, 'qid...ime.datetime(2016, 5, 2, 19, 47, 40), 'id': 10L}>"
p335
sS'SPAN'
p336
S"<class 'gluon.html.SPAN'>"
p337
sS'IS_JSON'
p338
S"<class 'gluon.validators.IS_JSON'>"
p339
sS'Field'
p340
S"<class 'pydal.objects.Field'>"
p341
sS'IS_IPADDRESS'
p342
S"<class 'gluon.validators.IS_IPADDRESS'>"
p343
sS'IS_SLUG'
p344
S"<class 'gluon.validators.IS_SLUG'>"
p345
sS'cat'
p346
S"'Sports'"
p347
sS'BEAUTIFY'
p348
S"<class 'gluon.html.BEAUTIFY'>"
p349
sS'META'
p350
S"<class 'gluon.html.META'>"
p351
sS'lvl'
p352
S"'Easy'"
p353
sS'BUTTON'
p354
S"<class 'gluon.html.BUTTON'>"
p355
sS'IS_DATE'
p356
S"<class 'gluon.validators.IS_DATE'>"
p357
sS'IS_EMAIL'
p358
S"<class 'gluon.validators.IS_EMAIL'>"
p359
sS'IS_NOT_EMPTY'
p360
S"<class 'gluon.validators.IS_NOT_EMPTY'>"
p361
sg56
S"<Storage {'_vars': None, 'function': 'marksheet'...e/mohit/itws_project/web2py/applications/quiz/'}>"
p362
sS'ans'
p363
S"<Row {'cans4': '|D|', 'cans5': '|A|', 'cans2': '...'|C|', 'cans1': '|A|', 'qidcans': 13L, 'id': 4L}>"
p364
sS'TBODY'
p365
S"<class 'gluon.html.TBODY'>"
p366
sS'CAT'
p367
S"<class 'gluon.html.CAT'>"
p368
sS'score4'
p369
S'10'
p370
sS'score5'
p371
S'10'
p372
sS'score2'
p373
S'10'
p374
sS'score3'
p375
S'-2'
p376
sS'DIV'
p377
S"<class 'gluon.html.DIV'>"
p378
sS'LEGEND'
p379
S"<class 'gluon.html.LEGEND'>"
p380
sS'form'
p381
S'<gluon.sqlhtml.SQLFORM object>'
p382
sS'COLGROUP'
p383
S"<class 'gluon.html.COLGROUP'>"
p384
sS'DAL'
p385
S"<class 'pydal.base.DAL'>"
p386
sS'ASSIGNJS'
p387
S'<function ASSIGNJS>'
p388
sS'TR'
p389
S"<class 'gluon.html.TR'>"
p390
sS'LI'
p391
S"<class 'gluon.html.LI'>"
p392
sS'TH'
p393
S"<class 'gluon.html.TH'>"
p394
sS'TD'
p395
S"<class 'gluon.html.TD'>"
p396
sS'PluginManager'
p397
S"<class 'gluon.tools.PluginManager'>"
p398
sS'IS_URL'
p399
S"<class 'gluon.validators.IS_URL'>"
p400
sS'A'
S"<class 'gluon.html.A'>"
p401
sS'HEAD'
p402
S"<class 'gluon.html.HEAD'>"
p403
sS'subcat'
p404
S"'Cricket'"
p405
sS'FORM'
p406
S"<class 'gluon.html.FORM'>"
p407
sS'I'
S"<class 'gluon.html.I'>"
p408
sS'IS_NOT_IN_DB'
p409
S"<class 'gluon.validators.IS_NOT_IN_DB'>"
p410
sg125
S"<Storage {'body': <cStringIO.StringO object at 0...7f05cd9f2230>, 'view': 'default/marksheet.html'}>"
p411
sS'CENTER'
p412
S"<class 'gluon.html.CENTER'>"
p413
sS'ANY_OF'
p414
S"<class 'gluon.validators.ANY_OF'>"
p415
sS'IS_NULL_OR'
p416
S"<class 'gluon.validators.IS_EMPTY_OR'>"
p417
sS'queid'
p418
S'13L'
p419
sS'IS_FLOAT_IN_RANGE'
p420
S"<class 'gluon.validators.IS_FLOAT_IN_RANGE'>"
p421
sg71
S'<Rows (120)>'
p422
sS'IS_EXPR'
p423
S"<class 'gluon.validators.IS_EXPR'>"
p424
sS'T'
S'<gluon.languages.translator object>'
p425
sS'st'
p426
S"'A'"
p427
sS'IS_IN_SET'
p428
S"<class 'gluon.validators.IS_IN_SET'>"
p429
sS'IS_UPLOAD_FILENAME'
p430
S"<class 'gluon.validators.IS_UPLOAD_FILENAME'>"
p431
sS'TT'
p432
S"<class 'gluon.html.TT'>"
p433
sS'IS_DECIMAL_IN_RANGE'
p434
S"<class 'gluon.validators.IS_DECIMAL_IN_RANGE'>"
p435
sssS'traceback'
p436
S'Traceback (most recent call last):\n  File "/home/mohit/itws_project/web2py/gluon/restricted.py", line 227, in restricted\n    exec ccode in environment\n  File "/home/mohit/itws_project/web2py/applications/quiz/views/default/marksheet.html", line 66, in <module>\n    display: inline-block;\nNameError: name \'score1\' is not defined\n'
p437
s.